

Microchip Technology PIC LITE Macro Assembler V1.43 build -156212558 
                                                                                               Wed Aug 30 00:21:07 2017

Microchip Technology Omniscient Code Generator v1.43 (Free mode) build 201707250354
     1                           	processor	16F887
     2                           	opt	pw 120
     3                           	opt	lm
     4                           	psect	strings,global,class=STRING,delta=2
     5                           	psect	cinit,global,class=CODE,merge=1,delta=2
     6                           	psect	cstackCOMMON,global,class=COMMON,space=1,delta=1
     7                           	psect	cstackBANK0,global,class=BANK0,space=1,delta=1
     8                           	psect	maintext,global,class=CODE,split=1,delta=2
     9                           	psect	text1,local,class=CODE,merge=1,delta=2,group=2
    10                           	psect	text2,local,class=CODE,merge=1,delta=2,group=2
    11                           	psect	text3,local,class=CODE,merge=1,delta=2,group=2
    12                           	psect	text4,local,class=CODE,merge=1,delta=2,group=2
    13                           	dabs	1,0x7E,2
    14  0000                     
    15                           ; Version 1.43
    16                           ; Generated 25/07/2017 GMT
    17                           ; 
    18                           ; Copyright © 2017, Microchip Technology Inc. and its subsidiaries ("Microchip")
    19                           ; All rights reserved.
    20                           ; 
    21                           ; This software is developed by Microchip Technology Inc. and its subsidiaries ("Microch
      +                          ip").
    22                           ; 
    23                           ; Redistribution and use in source and binary forms, with or without modification, are
    24                           ; permitted provided that the following conditions are met:
    25                           ; 
    26                           ;     1. Redistributions of source code must retain the above copyright notice, this lis
      +                          t of
    27                           ;        conditions and the following disclaimer.
    28                           ; 
    29                           ;     2. Redistributions in binary form must reproduce the above copyright notice, this 
      +                          list
    30                           ;        of conditions and the following disclaimer in the documentation and/or other
    31                           ;        materials provided with the distribution.
    32                           ; 
    33                           ;     3. Microchip's name may not be used to endorse or promote products derived from th
      +                          is
    34                           ;        software without specific prior written permission.
    35                           ; 
    36                           ; THIS SOFTWARE IS PROVIDED BY MICROCHIP "AS IS" AND ANY EXPRESS OR IMPLIED WARRANTIES,
    37                           ; INCLUDING, BUT NOT LIMITED TO, THE IMPLIED WARRANTIES OF MERCHANTABILITY AND FITNESS F
      +                          OR
    38                           ; PURPOSE ARE DISCLAIMED.  IN NO EVENT SHALL MICROCHIP BE LIABLE FOR ANY DIRECT, INDIREC
      +                          T,
    39                           ; INCIDENTAL, SPECIAL, EXEMPLARY, OR CONSEQUENTIAL DAMAGES (INCLUDING BUT NOT LIMITED TO
    40                           ; PROCUREMENT OF SUBSTITUTE GOODS OR SERVICES; LOSS OF USE, DATA OR PROFITS; OR BUSINESS
    41                           ; INTERRUPTION) HOWSOEVER CAUSED AND ON ANY THEORY OF LIABILITY, WHETHER IN CONTRACT, ST
      +                          RICT
    42                           ; LIABILITY, OR TORT (INCLUDING NEGLIGENCE OR OTHERWISE) ARISING IN ANY WAY OUT OF THE U
      +                          SE OF
    43                           ; THIS SOFTWARE, EVEN IF ADVISED OF THE POSSIBILITY OF SUCH DAMAGE.
    44                           ; 
    45                           ; 
    46                           ; Code-generator required, PIC16F887 Definitions
    47                           ; 
    48                           ; SFR Addresses
    49  0000                     	;# 
    50  0001                     	;# 
    51  0002                     	;# 
    52  0003                     	;# 
    53  0004                     	;# 
    54  0005                     	;# 
    55  0006                     	;# 
    56  0007                     	;# 
    57  0008                     	;# 
    58  0009                     	;# 
    59  000A                     	;# 
    60  000B                     	;# 
    61  000C                     	;# 
    62  000D                     	;# 
    63  000E                     	;# 
    64  000E                     	;# 
    65  000F                     	;# 
    66  0010                     	;# 
    67  0011                     	;# 
    68  0012                     	;# 
    69  0013                     	;# 
    70  0014                     	;# 
    71  0015                     	;# 
    72  0015                     	;# 
    73  0016                     	;# 
    74  0017                     	;# 
    75  0018                     	;# 
    76  0019                     	;# 
    77  001A                     	;# 
    78  001B                     	;# 
    79  001B                     	;# 
    80  001C                     	;# 
    81  001D                     	;# 
    82  001E                     	;# 
    83  001F                     	;# 
    84  0081                     	;# 
    85  0085                     	;# 
    86  0086                     	;# 
    87  0087                     	;# 
    88  0088                     	;# 
    89  0089                     	;# 
    90  008C                     	;# 
    91  008D                     	;# 
    92  008E                     	;# 
    93  008F                     	;# 
    94  0090                     	;# 
    95  0091                     	;# 
    96  0092                     	;# 
    97  0093                     	;# 
    98  0093                     	;# 
    99  0093                     	;# 
   100  0094                     	;# 
   101  0095                     	;# 
   102  0096                     	;# 
   103  0097                     	;# 
   104  0098                     	;# 
   105  0099                     	;# 
   106  009A                     	;# 
   107  009B                     	;# 
   108  009C                     	;# 
   109  009D                     	;# 
   110  009E                     	;# 
   111  009F                     	;# 
   112  0105                     	;# 
   113  0107                     	;# 
   114  0108                     	;# 
   115  0109                     	;# 
   116  010C                     	;# 
   117  010C                     	;# 
   118  010D                     	;# 
   119  010E                     	;# 
   120  010F                     	;# 
   121  0185                     	;# 
   122  0187                     	;# 
   123  0188                     	;# 
   124  0189                     	;# 
   125  018C                     	;# 
   126  018D                     	;# 
   127                           
   128                           	psect	strings
   129  0003                     __pstrings:	
   130  0003                     stringtab:	
   131  0003                     __stringtab:	
   132  0003                     stringcode:	
   133                           ;	String table - string pointers are 1 byte each
   134                           
   135  0003                     stringdir:	
   136  0003  3000               	movlw	high stringdir
   137  0004  008A               	movwf	10
   138  0005  0804               	movf	4,w
   139  0006  0A84               	incf	4,f
   140  0007  0782               	addwf	2,f
   141  0008                     __stringbase:	
   142  0008  3400               	retlw	0
   143  0009                     __end_of__stringtab:	
   144  0009                     _retraso:	
   145  0009  34E8               	retlw	232
   146  000A  3403               	retlw	3
   147  000B                     __end_of_retraso:	
   148  0007                     _PORTCbits	set	7
   149  0007                     _PORTC	set	7
   150  0006                     _PORTB	set	6
   151  0087                     _TRISC	set	135
   152  0086                     _TRISB	set	134
   153                           
   154                           ; #config settings
   155  0000                     
   156                           	psect	cinit
   157  07FC                     start_initialization:	
   158  07FC                     __initialization:	
   159  07FC                     end_of_initialization:	
   160                           ;End of C runtime variable initialization code
   161                           
   162  07FC                     __end_of__initialization:	
   163  07FC  0183               	clrf	3
   164  07FD  120A  118A  2A0D   	ljmp	_main	;jump to C main() function
   165                           
   166                           	psect	cstackCOMMON
   167  0070                     __pcstackCOMMON:	
   168  0070                     ?_main:	
   169  0070                     ?___ftpack:	
   170                           ; 1 bytes @ 0x0
   171                           
   172  0070                     ___ftpack@arg:	
   173                           ; 3 bytes @ 0x0
   174                           
   175                           
   176                           ; 3 bytes @ 0x0
   177  0070                     	ds	3
   178  0073                     ___ftpack@exp:	
   179                           
   180                           ; 1 bytes @ 0x3
   181  0073                     	ds	1
   182  0074                     ___ftpack@sign:	
   183                           
   184                           ; 1 bytes @ 0x4
   185  0074                     	ds	1
   186  0075                     ??___ftpack:	
   187                           
   188                           ; 1 bytes @ 0x5
   189  0075                     	ds	3
   190  0078                     ?___awtoft:	
   191  0078                     ___awtoft@c:	
   192                           ; 3 bytes @ 0x8
   193                           
   194                           
   195                           ; 2 bytes @ 0x8
   196  0078                     	ds	3
   197  007B                     ??___awtoft:	
   198                           
   199                           ; 1 bytes @ 0xB
   200  007B                     	ds	2
   201  007D                     ___awtoft@sign:	
   202                           
   203                           ; 1 bytes @ 0xD
   204  007D                     	ds	1
   205                           
   206                           	psect	cstackBANK0
   207  0020                     __pcstackBANK0:	
   208  0020                     ?___ftmul:	
   209  0020                     ___ftmul@f1:	
   210                           ; 3 bytes @ 0x0
   211                           
   212                           
   213                           ; 3 bytes @ 0x0
   214  0020                     	ds	3
   215  0023                     ___ftmul@f2:	
   216                           
   217                           ; 3 bytes @ 0x3
   218  0023                     	ds	3
   219  0026                     ??___ftmul:	
   220                           
   221                           ; 1 bytes @ 0x6
   222  0026                     	ds	4
   223  002A                     ___ftmul@exp:	
   224                           
   225                           ; 1 bytes @ 0xA
   226  002A                     	ds	1
   227  002B                     ___ftmul@f3_as_product:	
   228                           
   229                           ; 3 bytes @ 0xB
   230  002B                     	ds	3
   231  002E                     ___ftmul@cntr:	
   232                           
   233                           ; 1 bytes @ 0xE
   234  002E                     	ds	1
   235  002F                     ___ftmul@sign:	
   236                           
   237                           ; 1 bytes @ 0xF
   238  002F                     	ds	1
   239  0030                     ?___fttol:	
   240  0030                     ___fttol@f1:	
   241                           ; 4 bytes @ 0x10
   242                           
   243                           
   244                           ; 3 bytes @ 0x10
   245  0030                     	ds	4
   246  0034                     ??___fttol:	
   247                           
   248                           ; 1 bytes @ 0x14
   249  0034                     	ds	4
   250  0038                     ___fttol@sign1:	
   251                           
   252                           ; 1 bytes @ 0x18
   253  0038                     	ds	1
   254  0039                     ___fttol@lval:	
   255                           
   256                           ; 4 bytes @ 0x19
   257  0039                     	ds	4
   258  003D                     ___fttol@exp1:	
   259                           
   260                           ; 1 bytes @ 0x1D
   261  003D                     	ds	1
   262  003E                     ??_main:	
   263                           
   264                           ; 1 bytes @ 0x1E
   265  003E                     	ds	4
   266                           
   267                           	psect	maintext
   268  020D                     __pmaintext:	
   269 ;;
   270 ;;Main: autosize = 0, tempsize = 4, incstack = 0, save=0
   271 ;;
   272 ;; *************** function _main *****************
   273 ;; Defined at:
   274 ;;		line 13 in file "LedRotativo.c"
   275 ;; Parameters:    Size  Location     Type
   276 ;;		None
   277 ;; Auto vars:     Size  Location     Type
   278 ;;		None
   279 ;; Return value:  Size  Location     Type
   280 ;;                  1    wreg      void 
   281 ;; Registers used:
   282 ;;		wreg, fsr0l, fsr0h, status,2, status,0, pclath, cstack
   283 ;; Tracked objects:
   284 ;;		On entry : B00/0
   285 ;;		On exit  : 0/0
   286 ;;		Unchanged: 0/0
   287 ;; Data sizes:     COMMON   BANK0   BANK1   BANK3   BANK2
   288 ;;      Params:         0       0       0       0       0
   289 ;;      Locals:         0       0       0       0       0
   290 ;;      Temps:          0       4       0       0       0
   291 ;;      Totals:         0       4       0       0       0
   292 ;;Total ram usage:        4 bytes
   293 ;; Hardware stack levels required when called:    2
   294 ;; This function calls:
   295 ;;		___awtoft
   296 ;;		___ftmul
   297 ;;		___fttol
   298 ;; This function is called by:
   299 ;;		Startup code after reset
   300 ;; This function uses a non-reentrant model
   301 ;;
   302                           
   303                           
   304                           ;psect for function _main
   305  020D                     _main:	
   306                           
   307                           ;LedRotativo.c: 14: TRISB = 0;
   308                           
   309                           ;incstack = 0
   310                           ; Regs used in _main: [wreg-fsr0h+status,2+status,0+pclath+cstack]
   311  020D  1683               	bsf	3,5	;RP0=1, select bank1
   312  020E  1303               	bcf	3,6	;RP1=0, select bank1
   313  020F  0186               	clrf	6	;volatile
   314                           
   315                           ;LedRotativo.c: 15: PORTB = 0;
   316  0210  1283               	bcf	3,5	;RP0=0, select bank0
   317  0211  1303               	bcf	3,6	;RP1=0, select bank0
   318  0212  0186               	clrf	6	;volatile
   319                           
   320                           ;LedRotativo.c: 16: TRISC = 1;
   321  0213  3001               	movlw	1
   322  0214  1683               	bsf	3,5	;RP0=1, select bank1
   323  0215  1303               	bcf	3,6	;RP1=0, select bank1
   324  0216  0087               	movwf	7	;volatile
   325                           
   326                           ;LedRotativo.c: 17: PORTC = 0;
   327  0217  1283               	bcf	3,5	;RP0=0, select bank0
   328  0218  1303               	bcf	3,6	;RP1=0, select bank0
   329  0219  0187               	clrf	7	;volatile
   330  021A                     l844:	
   331                           ;LedRotativo.c: 19: while (1){
   332                           
   333                           
   334                           ;LedRotativo.c: 20: if (PORTCbits.RC0 == 1){
   335  021A  1283               	bcf	3,5	;RP0=0, select bank0
   336  021B  1303               	bcf	3,6	;RP1=0, select bank0
   337  021C  1C07               	btfss	7,0	;volatile
   338  021D  2C24               	goto	l868
   339                           
   340                           ;LedRotativo.c: 21: PORTB = 0b00000001;
   341  021E  3001               	movlw	1
   342  021F  0086               	movwf	6	;volatile
   343                           
   344                           ;LedRotativo.c: 22: _delay((unsigned long)((retraso)*(4000000/4000.0)));
   345  0220  3001               	movlw	low (_retraso-__stringbase)
   346  0221  0084               	movwf	4
   347  0222  120A  118A  2003  120A  118A  	fcall	stringdir
   348  0227  00F8               	movwf	___awtoft@c
   349  0228  120A  118A  2003  120A  118A  	fcall	stringdir
   350  022D  00F9               	movwf	___awtoft@c+1
   351  022E  120A  118A  201F  120A  118A  	fcall	___awtoft
   352  0233  0878               	movf	?___awtoft,w
   353  0234  1283               	bcf	3,5	;RP0=0, select bank0
   354  0235  1303               	bcf	3,6	;RP1=0, select bank0
   355  0236  00A3               	movwf	___ftmul@f2
   356  0237  0879               	movf	?___awtoft+1,w
   357  0238  00A4               	movwf	___ftmul@f2+1
   358  0239  087A               	movf	?___awtoft+2,w
   359  023A  00A5               	movwf	___ftmul@f2+2
   360  023B  3000               	movlw	0
   361  023C  00A0               	movwf	___ftmul@f1
   362  023D  307A               	movlw	122
   363  023E  00A1               	movwf	___ftmul@f1+1
   364  023F  3044               	movlw	68
   365  0240  00A2               	movwf	___ftmul@f1+2
   366  0241  120A  118A  213A  120A  118A  	fcall	___ftmul
   367  0246  1283               	bcf	3,5	;RP0=0, select bank0
   368  0247  1303               	bcf	3,6	;RP1=0, select bank0
   369  0248  0820               	movf	?___ftmul,w
   370  0249  00B0               	movwf	___fttol@f1
   371  024A  0821               	movf	?___ftmul+1,w
   372  024B  00B1               	movwf	___fttol@f1+1
   373  024C  0822               	movf	?___ftmul+2,w
   374  024D  00B2               	movwf	___fttol@f1+2
   375  024E  120A  118A  20AC  120A  118A  	fcall	___fttol
   376  0253  1283               	bcf	3,5	;RP0=0, select bank0
   377  0254  1303               	bcf	3,6	;RP1=0, select bank0
   378  0255  0830               	movf	?___fttol,w
   379  0256  00BE               	movwf	??_main
   380  0257  0831               	movf	?___fttol+1,w
   381  0258  00BF               	movwf	??_main+1
   382  0259  0832               	movf	?___fttol+2,w
   383  025A  00C0               	movwf	??_main+2
   384  025B  0833               	movf	?___fttol+3,w
   385  025C  00C1               	movwf	??_main+3
   386                           
   387                           ;LedRotativo.c: 23: PORTB = 0b00000010;
   388  025D  3002               	movlw	2
   389  025E  1283               	bcf	3,5	;RP0=0, select bank0
   390  025F  1303               	bcf	3,6	;RP1=0, select bank0
   391  0260  0086               	movwf	6	;volatile
   392                           
   393                           ;LedRotativo.c: 24: _delay((unsigned long)((retraso)*(4000000/4000.0)));
   394  0261  3001               	movlw	low (_retraso-__stringbase)
   395  0262  0084               	movwf	4
   396  0263  120A  118A  2003  120A  118A  	fcall	stringdir
   397  0268  00F8               	movwf	___awtoft@c
   398  0269  120A  118A  2003  120A  118A  	fcall	stringdir
   399  026E  00F9               	movwf	___awtoft@c+1
   400  026F  120A  118A  201F  120A  118A  	fcall	___awtoft
   401  0274  0878               	movf	?___awtoft,w
   402  0275  1283               	bcf	3,5	;RP0=0, select bank0
   403  0276  1303               	bcf	3,6	;RP1=0, select bank0
   404  0277  00A3               	movwf	___ftmul@f2
   405  0278  0879               	movf	?___awtoft+1,w
   406  0279  00A4               	movwf	___ftmul@f2+1
   407  027A  087A               	movf	?___awtoft+2,w
   408  027B  00A5               	movwf	___ftmul@f2+2
   409  027C  3000               	movlw	0
   410  027D  00A0               	movwf	___ftmul@f1
   411  027E  307A               	movlw	122
   412  027F  00A1               	movwf	___ftmul@f1+1
   413  0280  3044               	movlw	68
   414  0281  00A2               	movwf	___ftmul@f1+2
   415  0282  120A  118A  213A  120A  118A  	fcall	___ftmul
   416  0287  1283               	bcf	3,5	;RP0=0, select bank0
   417  0288  1303               	bcf	3,6	;RP1=0, select bank0
   418  0289  0820               	movf	?___ftmul,w
   419  028A  00B0               	movwf	___fttol@f1
   420  028B  0821               	movf	?___ftmul+1,w
   421  028C  00B1               	movwf	___fttol@f1+1
   422  028D  0822               	movf	?___ftmul+2,w
   423  028E  00B2               	movwf	___fttol@f1+2
   424  028F  120A  118A  20AC  120A  118A  	fcall	___fttol
   425  0294  1283               	bcf	3,5	;RP0=0, select bank0
   426  0295  1303               	bcf	3,6	;RP1=0, select bank0
   427  0296  0830               	movf	?___fttol,w
   428  0297  00BE               	movwf	??_main
   429  0298  0831               	movf	?___fttol+1,w
   430  0299  00BF               	movwf	??_main+1
   431  029A  0832               	movf	?___fttol+2,w
   432  029B  00C0               	movwf	??_main+2
   433  029C  0833               	movf	?___fttol+3,w
   434  029D  00C1               	movwf	??_main+3
   435                           
   436                           ;LedRotativo.c: 25: PORTB = 0b00000100;
   437  029E  3004               	movlw	4
   438  029F  1283               	bcf	3,5	;RP0=0, select bank0
   439  02A0  1303               	bcf	3,6	;RP1=0, select bank0
   440  02A1  0086               	movwf	6	;volatile
   441                           
   442                           ;LedRotativo.c: 26: _delay((unsigned long)((retraso)*(4000000/4000.0)));
   443  02A2  3001               	movlw	low (_retraso-__stringbase)
   444  02A3  0084               	movwf	4
   445  02A4  120A  118A  2003  120A  118A  	fcall	stringdir
   446  02A9  00F8               	movwf	___awtoft@c
   447  02AA  120A  118A  2003  120A  118A  	fcall	stringdir
   448  02AF  00F9               	movwf	___awtoft@c+1
   449  02B0  120A  118A  201F  120A  118A  	fcall	___awtoft
   450  02B5  0878               	movf	?___awtoft,w
   451  02B6  1283               	bcf	3,5	;RP0=0, select bank0
   452  02B7  1303               	bcf	3,6	;RP1=0, select bank0
   453  02B8  00A3               	movwf	___ftmul@f2
   454  02B9  0879               	movf	?___awtoft+1,w
   455  02BA  00A4               	movwf	___ftmul@f2+1
   456  02BB  087A               	movf	?___awtoft+2,w
   457  02BC  00A5               	movwf	___ftmul@f2+2
   458  02BD  3000               	movlw	0
   459  02BE  00A0               	movwf	___ftmul@f1
   460  02BF  307A               	movlw	122
   461  02C0  00A1               	movwf	___ftmul@f1+1
   462  02C1  3044               	movlw	68
   463  02C2  00A2               	movwf	___ftmul@f1+2
   464  02C3  120A  118A  213A  120A  118A  	fcall	___ftmul
   465  02C8  1283               	bcf	3,5	;RP0=0, select bank0
   466  02C9  1303               	bcf	3,6	;RP1=0, select bank0
   467  02CA  0820               	movf	?___ftmul,w
   468  02CB  00B0               	movwf	___fttol@f1
   469  02CC  0821               	movf	?___ftmul+1,w
   470  02CD  00B1               	movwf	___fttol@f1+1
   471  02CE  0822               	movf	?___ftmul+2,w
   472  02CF  00B2               	movwf	___fttol@f1+2
   473  02D0  120A  118A  20AC  120A  118A  	fcall	___fttol
   474  02D5  1283               	bcf	3,5	;RP0=0, select bank0
   475  02D6  1303               	bcf	3,6	;RP1=0, select bank0
   476  02D7  0830               	movf	?___fttol,w
   477  02D8  00BE               	movwf	??_main
   478  02D9  0831               	movf	?___fttol+1,w
   479  02DA  00BF               	movwf	??_main+1
   480  02DB  0832               	movf	?___fttol+2,w
   481  02DC  00C0               	movwf	??_main+2
   482  02DD  0833               	movf	?___fttol+3,w
   483  02DE  00C1               	movwf	??_main+3
   484                           
   485                           ;LedRotativo.c: 27: PORTB = 0b00001000;
   486  02DF  3008               	movlw	8
   487  02E0  1283               	bcf	3,5	;RP0=0, select bank0
   488  02E1  1303               	bcf	3,6	;RP1=0, select bank0
   489  02E2  0086               	movwf	6	;volatile
   490                           
   491                           ;LedRotativo.c: 28: _delay((unsigned long)((retraso)*(4000000/4000.0)));
   492  02E3  3001               	movlw	low (_retraso-__stringbase)
   493  02E4  0084               	movwf	4
   494  02E5  120A  118A  2003  120A  118A  	fcall	stringdir
   495  02EA  00F8               	movwf	___awtoft@c
   496  02EB  120A  118A  2003  120A  118A  	fcall	stringdir
   497  02F0  00F9               	movwf	___awtoft@c+1
   498  02F1  120A  118A  201F  120A  118A  	fcall	___awtoft
   499  02F6  0878               	movf	?___awtoft,w
   500  02F7  1283               	bcf	3,5	;RP0=0, select bank0
   501  02F8  1303               	bcf	3,6	;RP1=0, select bank0
   502  02F9  00A3               	movwf	___ftmul@f2
   503  02FA  0879               	movf	?___awtoft+1,w
   504  02FB  00A4               	movwf	___ftmul@f2+1
   505  02FC  087A               	movf	?___awtoft+2,w
   506  02FD  00A5               	movwf	___ftmul@f2+2
   507  02FE  3000               	movlw	0
   508  02FF  00A0               	movwf	___ftmul@f1
   509  0300  307A               	movlw	122
   510  0301  00A1               	movwf	___ftmul@f1+1
   511  0302  3044               	movlw	68
   512  0303  00A2               	movwf	___ftmul@f1+2
   513  0304  120A  118A  213A  120A  118A  	fcall	___ftmul
   514  0309  1283               	bcf	3,5	;RP0=0, select bank0
   515  030A  1303               	bcf	3,6	;RP1=0, select bank0
   516  030B  0820               	movf	?___ftmul,w
   517  030C  00B0               	movwf	___fttol@f1
   518  030D  0821               	movf	?___ftmul+1,w
   519  030E  00B1               	movwf	___fttol@f1+1
   520  030F  0822               	movf	?___ftmul+2,w
   521  0310  00B2               	movwf	___fttol@f1+2
   522  0311  120A  118A  20AC  120A  118A  	fcall	___fttol
   523  0316  1283               	bcf	3,5	;RP0=0, select bank0
   524  0317  1303               	bcf	3,6	;RP1=0, select bank0
   525  0318  0830               	movf	?___fttol,w
   526  0319  00BE               	movwf	??_main
   527  031A  0831               	movf	?___fttol+1,w
   528  031B  00BF               	movwf	??_main+1
   529  031C  0832               	movf	?___fttol+2,w
   530  031D  00C0               	movwf	??_main+2
   531  031E  0833               	movf	?___fttol+3,w
   532  031F  00C1               	movwf	??_main+3
   533                           
   534                           ;LedRotativo.c: 29: PORTB = 0b00010000;
   535  0320  3010               	movlw	16
   536  0321  1283               	bcf	3,5	;RP0=0, select bank0
   537  0322  1303               	bcf	3,6	;RP1=0, select bank0
   538  0323  0086               	movwf	6	;volatile
   539                           
   540                           ;LedRotativo.c: 30: _delay((unsigned long)((retraso)*(4000000/4000.0)));
   541  0324  3001               	movlw	low (_retraso-__stringbase)
   542  0325  0084               	movwf	4
   543  0326  120A  118A  2003  120A  118A  	fcall	stringdir
   544  032B  00F8               	movwf	___awtoft@c
   545  032C  120A  118A  2003  120A  118A  	fcall	stringdir
   546  0331  00F9               	movwf	___awtoft@c+1
   547  0332  120A  118A  201F  120A  118A  	fcall	___awtoft
   548  0337  0878               	movf	?___awtoft,w
   549  0338  1283               	bcf	3,5	;RP0=0, select bank0
   550  0339  1303               	bcf	3,6	;RP1=0, select bank0
   551  033A  00A3               	movwf	___ftmul@f2
   552  033B  0879               	movf	?___awtoft+1,w
   553  033C  00A4               	movwf	___ftmul@f2+1
   554  033D  087A               	movf	?___awtoft+2,w
   555  033E  00A5               	movwf	___ftmul@f2+2
   556  033F  3000               	movlw	0
   557  0340  00A0               	movwf	___ftmul@f1
   558  0341  307A               	movlw	122
   559  0342  00A1               	movwf	___ftmul@f1+1
   560  0343  3044               	movlw	68
   561  0344  00A2               	movwf	___ftmul@f1+2
   562  0345  120A  118A  213A  120A  118A  	fcall	___ftmul
   563  034A  1283               	bcf	3,5	;RP0=0, select bank0
   564  034B  1303               	bcf	3,6	;RP1=0, select bank0
   565  034C  0820               	movf	?___ftmul,w
   566  034D  00B0               	movwf	___fttol@f1
   567  034E  0821               	movf	?___ftmul+1,w
   568  034F  00B1               	movwf	___fttol@f1+1
   569  0350  0822               	movf	?___ftmul+2,w
   570  0351  00B2               	movwf	___fttol@f1+2
   571  0352  120A  118A  20AC  120A  118A  	fcall	___fttol
   572  0357  1283               	bcf	3,5	;RP0=0, select bank0
   573  0358  1303               	bcf	3,6	;RP1=0, select bank0
   574  0359  0830               	movf	?___fttol,w
   575  035A  00BE               	movwf	??_main
   576  035B  0831               	movf	?___fttol+1,w
   577  035C  00BF               	movwf	??_main+1
   578  035D  0832               	movf	?___fttol+2,w
   579  035E  00C0               	movwf	??_main+2
   580  035F  0833               	movf	?___fttol+3,w
   581  0360  00C1               	movwf	??_main+3
   582                           
   583                           ;LedRotativo.c: 31: PORTB = 0b00100000;
   584  0361  3020               	movlw	32
   585  0362  1283               	bcf	3,5	;RP0=0, select bank0
   586  0363  1303               	bcf	3,6	;RP1=0, select bank0
   587  0364  0086               	movwf	6	;volatile
   588                           
   589                           ;LedRotativo.c: 32: _delay((unsigned long)((retraso)*(4000000/4000.0)));
   590  0365  3001               	movlw	low (_retraso-__stringbase)
   591  0366  0084               	movwf	4
   592  0367  120A  118A  2003  120A  118A  	fcall	stringdir
   593  036C  00F8               	movwf	___awtoft@c
   594  036D  120A  118A  2003  120A  118A  	fcall	stringdir
   595  0372  00F9               	movwf	___awtoft@c+1
   596  0373  120A  118A  201F  120A  118A  	fcall	___awtoft
   597  0378  0878               	movf	?___awtoft,w
   598  0379  1283               	bcf	3,5	;RP0=0, select bank0
   599  037A  1303               	bcf	3,6	;RP1=0, select bank0
   600  037B  00A3               	movwf	___ftmul@f2
   601  037C  0879               	movf	?___awtoft+1,w
   602  037D  00A4               	movwf	___ftmul@f2+1
   603  037E  087A               	movf	?___awtoft+2,w
   604  037F  00A5               	movwf	___ftmul@f2+2
   605  0380  3000               	movlw	0
   606  0381  00A0               	movwf	___ftmul@f1
   607  0382  307A               	movlw	122
   608  0383  00A1               	movwf	___ftmul@f1+1
   609  0384  3044               	movlw	68
   610  0385  00A2               	movwf	___ftmul@f1+2
   611  0386  120A  118A  213A  120A  118A  	fcall	___ftmul
   612  038B  1283               	bcf	3,5	;RP0=0, select bank0
   613  038C  1303               	bcf	3,6	;RP1=0, select bank0
   614  038D  0820               	movf	?___ftmul,w
   615  038E  00B0               	movwf	___fttol@f1
   616  038F  0821               	movf	?___ftmul+1,w
   617  0390  00B1               	movwf	___fttol@f1+1
   618  0391  0822               	movf	?___ftmul+2,w
   619  0392  00B2               	movwf	___fttol@f1+2
   620  0393  120A  118A  20AC  120A  118A  	fcall	___fttol
   621  0398  1283               	bcf	3,5	;RP0=0, select bank0
   622  0399  1303               	bcf	3,6	;RP1=0, select bank0
   623  039A  0830               	movf	?___fttol,w
   624  039B  00BE               	movwf	??_main
   625  039C  0831               	movf	?___fttol+1,w
   626  039D  00BF               	movwf	??_main+1
   627  039E  0832               	movf	?___fttol+2,w
   628  039F  00C0               	movwf	??_main+2
   629  03A0  0833               	movf	?___fttol+3,w
   630  03A1  00C1               	movwf	??_main+3
   631                           
   632                           ;LedRotativo.c: 33: PORTB = 0b01000000;
   633  03A2  3040               	movlw	64
   634  03A3  1283               	bcf	3,5	;RP0=0, select bank0
   635  03A4  1303               	bcf	3,6	;RP1=0, select bank0
   636  03A5  0086               	movwf	6	;volatile
   637                           
   638                           ;LedRotativo.c: 34: _delay((unsigned long)((retraso)*(4000000/4000.0)));
   639  03A6  3001               	movlw	low (_retraso-__stringbase)
   640  03A7  0084               	movwf	4
   641  03A8  120A  118A  2003  120A  118A  	fcall	stringdir
   642  03AD  00F8               	movwf	___awtoft@c
   643  03AE  120A  118A  2003  120A  118A  	fcall	stringdir
   644  03B3  00F9               	movwf	___awtoft@c+1
   645  03B4  120A  118A  201F  120A  118A  	fcall	___awtoft
   646  03B9  0878               	movf	?___awtoft,w
   647  03BA  1283               	bcf	3,5	;RP0=0, select bank0
   648  03BB  1303               	bcf	3,6	;RP1=0, select bank0
   649  03BC  00A3               	movwf	___ftmul@f2
   650  03BD  0879               	movf	?___awtoft+1,w
   651  03BE  00A4               	movwf	___ftmul@f2+1
   652  03BF  087A               	movf	?___awtoft+2,w
   653  03C0  00A5               	movwf	___ftmul@f2+2
   654  03C1  3000               	movlw	0
   655  03C2  00A0               	movwf	___ftmul@f1
   656  03C3  307A               	movlw	122
   657  03C4  00A1               	movwf	___ftmul@f1+1
   658  03C5  3044               	movlw	68
   659  03C6  00A2               	movwf	___ftmul@f1+2
   660  03C7  120A  118A  213A  120A  118A  	fcall	___ftmul
   661  03CC  1283               	bcf	3,5	;RP0=0, select bank0
   662  03CD  1303               	bcf	3,6	;RP1=0, select bank0
   663  03CE  0820               	movf	?___ftmul,w
   664  03CF  00B0               	movwf	___fttol@f1
   665  03D0  0821               	movf	?___ftmul+1,w
   666  03D1  00B1               	movwf	___fttol@f1+1
   667  03D2  0822               	movf	?___ftmul+2,w
   668  03D3  00B2               	movwf	___fttol@f1+2
   669  03D4  120A  118A  20AC  120A  118A  	fcall	___fttol
   670  03D9  1283               	bcf	3,5	;RP0=0, select bank0
   671  03DA  1303               	bcf	3,6	;RP1=0, select bank0
   672  03DB  0830               	movf	?___fttol,w
   673  03DC  00BE               	movwf	??_main
   674  03DD  0831               	movf	?___fttol+1,w
   675  03DE  00BF               	movwf	??_main+1
   676  03DF  0832               	movf	?___fttol+2,w
   677  03E0  00C0               	movwf	??_main+2
   678  03E1  0833               	movf	?___fttol+3,w
   679  03E2  00C1               	movwf	??_main+3
   680                           
   681                           ;LedRotativo.c: 35: PORTB = 0b10000000;
   682  03E3  3080               	movlw	128
   683  03E4  1283               	bcf	3,5	;RP0=0, select bank0
   684  03E5  1303               	bcf	3,6	;RP1=0, select bank0
   685  03E6  0086               	movwf	6	;volatile
   686                           
   687                           ;LedRotativo.c: 36: _delay((unsigned long)((retraso)*(4000000/4000.0)));
   688  03E7  3001               	movlw	low (_retraso-__stringbase)
   689  03E8  0084               	movwf	4
   690  03E9  120A  118A  2003  120A  118A  	fcall	stringdir
   691  03EE  00F8               	movwf	___awtoft@c
   692  03EF  120A  118A  2003  120A  118A  	fcall	stringdir
   693  03F4  00F9               	movwf	___awtoft@c+1
   694  03F5  120A  118A  201F  120A  118A  	fcall	___awtoft
   695  03FA  0878               	movf	?___awtoft,w
   696  03FB  1283               	bcf	3,5	;RP0=0, select bank0
   697  03FC  1303               	bcf	3,6	;RP1=0, select bank0
   698  03FD  00A3               	movwf	___ftmul@f2
   699  03FE  0879               	movf	?___awtoft+1,w
   700  03FF  00A4               	movwf	___ftmul@f2+1
   701  0400  087A               	movf	?___awtoft+2,w
   702  0401  00A5               	movwf	___ftmul@f2+2
   703  0402  3000               	movlw	0
   704  0403  00A0               	movwf	___ftmul@f1
   705  0404  307A               	movlw	122
   706  0405  00A1               	movwf	___ftmul@f1+1
   707  0406  3044               	movlw	68
   708  0407  00A2               	movwf	___ftmul@f1+2
   709  0408  120A  118A  213A  120A  118A  	fcall	___ftmul
   710  040D  1283               	bcf	3,5	;RP0=0, select bank0
   711  040E  1303               	bcf	3,6	;RP1=0, select bank0
   712  040F  0820               	movf	?___ftmul,w
   713  0410  00B0               	movwf	___fttol@f1
   714  0411  0821               	movf	?___ftmul+1,w
   715  0412  00B1               	movwf	___fttol@f1+1
   716  0413  0822               	movf	?___ftmul+2,w
   717  0414  00B2               	movwf	___fttol@f1+2
   718  0415  120A  118A  20AC  120A  118A  	fcall	___fttol
   719  041A  1283               	bcf	3,5	;RP0=0, select bank0
   720  041B  1303               	bcf	3,6	;RP1=0, select bank0
   721  041C  0830               	movf	?___fttol,w
   722  041D  00BE               	movwf	??_main
   723  041E  0831               	movf	?___fttol+1,w
   724  041F  00BF               	movwf	??_main+1
   725  0420  0832               	movf	?___fttol+2,w
   726  0421  00C0               	movwf	??_main+2
   727  0422  0833               	movf	?___fttol+3,w
   728  0423  00C1               	movwf	??_main+3
   729  0424                     l868:	
   730                           
   731                           ;LedRotativo.c: 37: }
   732                           ;LedRotativo.c: 39: if (PORTCbits.RC1 == 1){
   733  0424  1283               	bcf	3,5	;RP0=0, select bank0
   734  0425  1303               	bcf	3,6	;RP1=0, select bank0
   735  0426  1C87               	btfss	7,1	;volatile
   736  0427  2CED               	goto	l880
   737                           
   738                           ;LedRotativo.c: 40: PORTB = 0b10000001;
   739  0428  3081               	movlw	129
   740  0429  0086               	movwf	6	;volatile
   741                           
   742                           ;LedRotativo.c: 41: _delay((unsigned long)((retraso)*(4000000/4000.0)));
   743  042A  3001               	movlw	low (_retraso-__stringbase)
   744  042B  0084               	movwf	4
   745  042C  120A  118A  2003  120A  118A  	fcall	stringdir
   746  0431  00F8               	movwf	___awtoft@c
   747  0432  120A  118A  2003  120A  118A  	fcall	stringdir
   748  0437  00F9               	movwf	___awtoft@c+1
   749  0438  120A  118A  201F  120A  118A  	fcall	___awtoft
   750  043D  0878               	movf	?___awtoft,w
   751  043E  1283               	bcf	3,5	;RP0=0, select bank0
   752  043F  1303               	bcf	3,6	;RP1=0, select bank0
   753  0440  00A3               	movwf	___ftmul@f2
   754  0441  0879               	movf	?___awtoft+1,w
   755  0442  00A4               	movwf	___ftmul@f2+1
   756  0443  087A               	movf	?___awtoft+2,w
   757  0444  00A5               	movwf	___ftmul@f2+2
   758  0445  3000               	movlw	0
   759  0446  00A0               	movwf	___ftmul@f1
   760  0447  307A               	movlw	122
   761  0448  00A1               	movwf	___ftmul@f1+1
   762  0449  3044               	movlw	68
   763  044A  00A2               	movwf	___ftmul@f1+2
   764  044B  120A  118A  213A  120A  118A  	fcall	___ftmul
   765  0450  1283               	bcf	3,5	;RP0=0, select bank0
   766  0451  1303               	bcf	3,6	;RP1=0, select bank0
   767  0452  0820               	movf	?___ftmul,w
   768  0453  00B0               	movwf	___fttol@f1
   769  0454  0821               	movf	?___ftmul+1,w
   770  0455  00B1               	movwf	___fttol@f1+1
   771  0456  0822               	movf	?___ftmul+2,w
   772  0457  00B2               	movwf	___fttol@f1+2
   773  0458  120A  118A  20AC  120A  118A  	fcall	___fttol
   774  045D  1283               	bcf	3,5	;RP0=0, select bank0
   775  045E  1303               	bcf	3,6	;RP1=0, select bank0
   776  045F  0830               	movf	?___fttol,w
   777  0460  00BE               	movwf	??_main
   778  0461  0831               	movf	?___fttol+1,w
   779  0462  00BF               	movwf	??_main+1
   780  0463  0832               	movf	?___fttol+2,w
   781  0464  00C0               	movwf	??_main+2
   782  0465  0833               	movf	?___fttol+3,w
   783  0466  00C1               	movwf	??_main+3
   784                           
   785                           ;LedRotativo.c: 42: PORTB = 0b01000010;
   786  0467  3042               	movlw	66
   787  0468  1283               	bcf	3,5	;RP0=0, select bank0
   788  0469  1303               	bcf	3,6	;RP1=0, select bank0
   789  046A  0086               	movwf	6	;volatile
   790                           
   791                           ;LedRotativo.c: 43: _delay((unsigned long)((retraso)*(4000000/4000.0)));
   792  046B  3001               	movlw	low (_retraso-__stringbase)
   793  046C  0084               	movwf	4
   794  046D  120A  118A  2003  120A  118A  	fcall	stringdir
   795  0472  00F8               	movwf	___awtoft@c
   796  0473  120A  118A  2003  120A  118A  	fcall	stringdir
   797  0478  00F9               	movwf	___awtoft@c+1
   798  0479  120A  118A  201F  120A  118A  	fcall	___awtoft
   799  047E  0878               	movf	?___awtoft,w
   800  047F  1283               	bcf	3,5	;RP0=0, select bank0
   801  0480  1303               	bcf	3,6	;RP1=0, select bank0
   802  0481  00A3               	movwf	___ftmul@f2
   803  0482  0879               	movf	?___awtoft+1,w
   804  0483  00A4               	movwf	___ftmul@f2+1
   805  0484  087A               	movf	?___awtoft+2,w
   806  0485  00A5               	movwf	___ftmul@f2+2
   807  0486  3000               	movlw	0
   808  0487  00A0               	movwf	___ftmul@f1
   809  0488  307A               	movlw	122
   810  0489  00A1               	movwf	___ftmul@f1+1
   811  048A  3044               	movlw	68
   812  048B  00A2               	movwf	___ftmul@f1+2
   813  048C  120A  118A  213A  120A  118A  	fcall	___ftmul
   814  0491  1283               	bcf	3,5	;RP0=0, select bank0
   815  0492  1303               	bcf	3,6	;RP1=0, select bank0
   816  0493  0820               	movf	?___ftmul,w
   817  0494  00B0               	movwf	___fttol@f1
   818  0495  0821               	movf	?___ftmul+1,w
   819  0496  00B1               	movwf	___fttol@f1+1
   820  0497  0822               	movf	?___ftmul+2,w
   821  0498  00B2               	movwf	___fttol@f1+2
   822  0499  120A  118A  20AC  120A  118A  	fcall	___fttol
   823  049E  1283               	bcf	3,5	;RP0=0, select bank0
   824  049F  1303               	bcf	3,6	;RP1=0, select bank0
   825  04A0  0830               	movf	?___fttol,w
   826  04A1  00BE               	movwf	??_main
   827  04A2  0831               	movf	?___fttol+1,w
   828  04A3  00BF               	movwf	??_main+1
   829  04A4  0832               	movf	?___fttol+2,w
   830  04A5  00C0               	movwf	??_main+2
   831  04A6  0833               	movf	?___fttol+3,w
   832  04A7  00C1               	movwf	??_main+3
   833                           
   834                           ;LedRotativo.c: 44: PORTB = 0b00100100;
   835  04A8  3024               	movlw	36
   836  04A9  1283               	bcf	3,5	;RP0=0, select bank0
   837  04AA  1303               	bcf	3,6	;RP1=0, select bank0
   838  04AB  0086               	movwf	6	;volatile
   839                           
   840                           ;LedRotativo.c: 45: _delay((unsigned long)((retraso)*(4000000/4000.0)));
   841  04AC  3001               	movlw	low (_retraso-__stringbase)
   842  04AD  0084               	movwf	4
   843  04AE  120A  118A  2003  120A  118A  	fcall	stringdir
   844  04B3  00F8               	movwf	___awtoft@c
   845  04B4  120A  118A  2003  120A  118A  	fcall	stringdir
   846  04B9  00F9               	movwf	___awtoft@c+1
   847  04BA  120A  118A  201F  120A  118A  	fcall	___awtoft
   848  04BF  0878               	movf	?___awtoft,w
   849  04C0  1283               	bcf	3,5	;RP0=0, select bank0
   850  04C1  1303               	bcf	3,6	;RP1=0, select bank0
   851  04C2  00A3               	movwf	___ftmul@f2
   852  04C3  0879               	movf	?___awtoft+1,w
   853  04C4  00A4               	movwf	___ftmul@f2+1
   854  04C5  087A               	movf	?___awtoft+2,w
   855  04C6  00A5               	movwf	___ftmul@f2+2
   856  04C7  3000               	movlw	0
   857  04C8  00A0               	movwf	___ftmul@f1
   858  04C9  307A               	movlw	122
   859  04CA  00A1               	movwf	___ftmul@f1+1
   860  04CB  3044               	movlw	68
   861  04CC  00A2               	movwf	___ftmul@f1+2
   862  04CD  120A  118A  213A  120A  118A  	fcall	___ftmul
   863  04D2  1283               	bcf	3,5	;RP0=0, select bank0
   864  04D3  1303               	bcf	3,6	;RP1=0, select bank0
   865  04D4  0820               	movf	?___ftmul,w
   866  04D5  00B0               	movwf	___fttol@f1
   867  04D6  0821               	movf	?___ftmul+1,w
   868  04D7  00B1               	movwf	___fttol@f1+1
   869  04D8  0822               	movf	?___ftmul+2,w
   870  04D9  00B2               	movwf	___fttol@f1+2
   871  04DA  120A  118A  20AC  120A  118A  	fcall	___fttol
   872  04DF  1283               	bcf	3,5	;RP0=0, select bank0
   873  04E0  1303               	bcf	3,6	;RP1=0, select bank0
   874  04E1  0830               	movf	?___fttol,w
   875  04E2  00BE               	movwf	??_main
   876  04E3  0831               	movf	?___fttol+1,w
   877  04E4  00BF               	movwf	??_main+1
   878  04E5  0832               	movf	?___fttol+2,w
   879  04E6  00C0               	movwf	??_main+2
   880  04E7  0833               	movf	?___fttol+3,w
   881  04E8  00C1               	movwf	??_main+3
   882                           
   883                           ;LedRotativo.c: 46: PORTB = 0b00011000;
   884  04E9  3018               	movlw	24
   885  04EA  1283               	bcf	3,5	;RP0=0, select bank0
   886  04EB  1303               	bcf	3,6	;RP1=0, select bank0
   887  04EC  0086               	movwf	6	;volatile
   888  04ED                     l880:	
   889                           
   890                           ;LedRotativo.c: 47: }
   891                           ;LedRotativo.c: 49: if (PORTCbits.RC2 == 1){
   892  04ED  1D07               	btfss	7,2	;volatile
   893  04EE  2DF1               	goto	l894
   894                           
   895                           ;LedRotativo.c: 50: PORTB = 0b00011000;
   896  04EF  3018               	movlw	24
   897  04F0  0086               	movwf	6	;volatile
   898                           
   899                           ;LedRotativo.c: 51: _delay((unsigned long)((retraso)*(4000000/4000.0)));
   900  04F1  3001               	movlw	low (_retraso-__stringbase)
   901  04F2  0084               	movwf	4
   902  04F3  120A  118A  2003  120A  118A  	fcall	stringdir
   903  04F8  00F8               	movwf	___awtoft@c
   904  04F9  120A  118A  2003  120A  118A  	fcall	stringdir
   905  04FE  00F9               	movwf	___awtoft@c+1
   906  04FF  120A  118A  201F  120A  118A  	fcall	___awtoft
   907  0504  0878               	movf	?___awtoft,w
   908  0505  1283               	bcf	3,5	;RP0=0, select bank0
   909  0506  1303               	bcf	3,6	;RP1=0, select bank0
   910  0507  00A3               	movwf	___ftmul@f2
   911  0508  0879               	movf	?___awtoft+1,w
   912  0509  00A4               	movwf	___ftmul@f2+1
   913  050A  087A               	movf	?___awtoft+2,w
   914  050B  00A5               	movwf	___ftmul@f2+2
   915  050C  3000               	movlw	0
   916  050D  00A0               	movwf	___ftmul@f1
   917  050E  307A               	movlw	122
   918  050F  00A1               	movwf	___ftmul@f1+1
   919  0510  3044               	movlw	68
   920  0511  00A2               	movwf	___ftmul@f1+2
   921  0512  120A  118A  213A  120A  118A  	fcall	___ftmul
   922  0517  1283               	bcf	3,5	;RP0=0, select bank0
   923  0518  1303               	bcf	3,6	;RP1=0, select bank0
   924  0519  0820               	movf	?___ftmul,w
   925  051A  00B0               	movwf	___fttol@f1
   926  051B  0821               	movf	?___ftmul+1,w
   927  051C  00B1               	movwf	___fttol@f1+1
   928  051D  0822               	movf	?___ftmul+2,w
   929  051E  00B2               	movwf	___fttol@f1+2
   930  051F  120A  118A  20AC  120A  118A  	fcall	___fttol
   931  0524  1283               	bcf	3,5	;RP0=0, select bank0
   932  0525  1303               	bcf	3,6	;RP1=0, select bank0
   933  0526  0830               	movf	?___fttol,w
   934  0527  00BE               	movwf	??_main
   935  0528  0831               	movf	?___fttol+1,w
   936  0529  00BF               	movwf	??_main+1
   937  052A  0832               	movf	?___fttol+2,w
   938  052B  00C0               	movwf	??_main+2
   939  052C  0833               	movf	?___fttol+3,w
   940  052D  00C1               	movwf	??_main+3
   941                           
   942                           ;LedRotativo.c: 52: PORTB = 0b00100100;
   943  052E  3024               	movlw	36
   944  052F  1283               	bcf	3,5	;RP0=0, select bank0
   945  0530  1303               	bcf	3,6	;RP1=0, select bank0
   946  0531  0086               	movwf	6	;volatile
   947                           
   948                           ;LedRotativo.c: 53: _delay((unsigned long)((retraso)*(4000000/4000.0)));
   949  0532  3001               	movlw	low (_retraso-__stringbase)
   950  0533  0084               	movwf	4
   951  0534  120A  118A  2003  120A  118A  	fcall	stringdir
   952  0539  00F8               	movwf	___awtoft@c
   953  053A  120A  118A  2003  120A  118A  	fcall	stringdir
   954  053F  00F9               	movwf	___awtoft@c+1
   955  0540  120A  118A  201F  120A  118A  	fcall	___awtoft
   956  0545  0878               	movf	?___awtoft,w
   957  0546  1283               	bcf	3,5	;RP0=0, select bank0
   958  0547  1303               	bcf	3,6	;RP1=0, select bank0
   959  0548  00A3               	movwf	___ftmul@f2
   960  0549  0879               	movf	?___awtoft+1,w
   961  054A  00A4               	movwf	___ftmul@f2+1
   962  054B  087A               	movf	?___awtoft+2,w
   963  054C  00A5               	movwf	___ftmul@f2+2
   964  054D  3000               	movlw	0
   965  054E  00A0               	movwf	___ftmul@f1
   966  054F  307A               	movlw	122
   967  0550  00A1               	movwf	___ftmul@f1+1
   968  0551  3044               	movlw	68
   969  0552  00A2               	movwf	___ftmul@f1+2
   970  0553  120A  118A  213A  120A  118A  	fcall	___ftmul
   971  0558  1283               	bcf	3,5	;RP0=0, select bank0
   972  0559  1303               	bcf	3,6	;RP1=0, select bank0
   973  055A  0820               	movf	?___ftmul,w
   974  055B  00B0               	movwf	___fttol@f1
   975  055C  0821               	movf	?___ftmul+1,w
   976  055D  00B1               	movwf	___fttol@f1+1
   977  055E  0822               	movf	?___ftmul+2,w
   978  055F  00B2               	movwf	___fttol@f1+2
   979  0560  120A  118A  20AC  120A  118A  	fcall	___fttol
   980  0565  1283               	bcf	3,5	;RP0=0, select bank0
   981  0566  1303               	bcf	3,6	;RP1=0, select bank0
   982  0567  0830               	movf	?___fttol,w
   983  0568  00BE               	movwf	??_main
   984  0569  0831               	movf	?___fttol+1,w
   985  056A  00BF               	movwf	??_main+1
   986  056B  0832               	movf	?___fttol+2,w
   987  056C  00C0               	movwf	??_main+2
   988  056D  0833               	movf	?___fttol+3,w
   989  056E  00C1               	movwf	??_main+3
   990                           
   991                           ;LedRotativo.c: 54: PORTB = 0b01000010;
   992  056F  3042               	movlw	66
   993  0570  1283               	bcf	3,5	;RP0=0, select bank0
   994  0571  1303               	bcf	3,6	;RP1=0, select bank0
   995  0572  0086               	movwf	6	;volatile
   996                           
   997                           ;LedRotativo.c: 55: _delay((unsigned long)((retraso)*(4000000/4000.0)));
   998  0573  3001               	movlw	low (_retraso-__stringbase)
   999  0574  0084               	movwf	4
  1000  0575  120A  118A  2003  120A  118A  	fcall	stringdir
  1001  057A  00F8               	movwf	___awtoft@c
  1002  057B  120A  118A  2003  120A  118A  	fcall	stringdir
  1003  0580  00F9               	movwf	___awtoft@c+1
  1004  0581  120A  118A  201F  120A  118A  	fcall	___awtoft
  1005  0586  0878               	movf	?___awtoft,w
  1006  0587  1283               	bcf	3,5	;RP0=0, select bank0
  1007  0588  1303               	bcf	3,6	;RP1=0, select bank0
  1008  0589  00A3               	movwf	___ftmul@f2
  1009  058A  0879               	movf	?___awtoft+1,w
  1010  058B  00A4               	movwf	___ftmul@f2+1
  1011  058C  087A               	movf	?___awtoft+2,w
  1012  058D  00A5               	movwf	___ftmul@f2+2
  1013  058E  3000               	movlw	0
  1014  058F  00A0               	movwf	___ftmul@f1
  1015  0590  307A               	movlw	122
  1016  0591  00A1               	movwf	___ftmul@f1+1
  1017  0592  3044               	movlw	68
  1018  0593  00A2               	movwf	___ftmul@f1+2
  1019  0594  120A  118A  213A  120A  118A  	fcall	___ftmul
  1020  0599  1283               	bcf	3,5	;RP0=0, select bank0
  1021  059A  1303               	bcf	3,6	;RP1=0, select bank0
  1022  059B  0820               	movf	?___ftmul,w
  1023  059C  00B0               	movwf	___fttol@f1
  1024  059D  0821               	movf	?___ftmul+1,w
  1025  059E  00B1               	movwf	___fttol@f1+1
  1026  059F  0822               	movf	?___ftmul+2,w
  1027  05A0  00B2               	movwf	___fttol@f1+2
  1028  05A1  120A  118A  20AC  120A  118A  	fcall	___fttol
  1029  05A6  1283               	bcf	3,5	;RP0=0, select bank0
  1030  05A7  1303               	bcf	3,6	;RP1=0, select bank0
  1031  05A8  0830               	movf	?___fttol,w
  1032  05A9  00BE               	movwf	??_main
  1033  05AA  0831               	movf	?___fttol+1,w
  1034  05AB  00BF               	movwf	??_main+1
  1035  05AC  0832               	movf	?___fttol+2,w
  1036  05AD  00C0               	movwf	??_main+2
  1037  05AE  0833               	movf	?___fttol+3,w
  1038  05AF  00C1               	movwf	??_main+3
  1039                           
  1040                           ;LedRotativo.c: 56: PORTB = 0b10000001;
  1041  05B0  3081               	movlw	129
  1042  05B1  1283               	bcf	3,5	;RP0=0, select bank0
  1043  05B2  1303               	bcf	3,6	;RP1=0, select bank0
  1044  05B3  0086               	movwf	6	;volatile
  1045                           
  1046                           ;LedRotativo.c: 57: _delay((unsigned long)((retraso)*(4000000/4000.0)));
  1047  05B4  3001               	movlw	low (_retraso-__stringbase)
  1048  05B5  0084               	movwf	4
  1049  05B6  120A  118A  2003  120A  118A  	fcall	stringdir
  1050  05BB  00F8               	movwf	___awtoft@c
  1051  05BC  120A  118A  2003  120A  118A  	fcall	stringdir
  1052  05C1  00F9               	movwf	___awtoft@c+1
  1053  05C2  120A  118A  201F  120A  118A  	fcall	___awtoft
  1054  05C7  0878               	movf	?___awtoft,w
  1055  05C8  1283               	bcf	3,5	;RP0=0, select bank0
  1056  05C9  1303               	bcf	3,6	;RP1=0, select bank0
  1057  05CA  00A3               	movwf	___ftmul@f2
  1058  05CB  0879               	movf	?___awtoft+1,w
  1059  05CC  00A4               	movwf	___ftmul@f2+1
  1060  05CD  087A               	movf	?___awtoft+2,w
  1061  05CE  00A5               	movwf	___ftmul@f2+2
  1062  05CF  3000               	movlw	0
  1063  05D0  00A0               	movwf	___ftmul@f1
  1064  05D1  307A               	movlw	122
  1065  05D2  00A1               	movwf	___ftmul@f1+1
  1066  05D3  3044               	movlw	68
  1067  05D4  00A2               	movwf	___ftmul@f1+2
  1068  05D5  120A  118A  213A  120A  118A  	fcall	___ftmul
  1069  05DA  1283               	bcf	3,5	;RP0=0, select bank0
  1070  05DB  1303               	bcf	3,6	;RP1=0, select bank0
  1071  05DC  0820               	movf	?___ftmul,w
  1072  05DD  00B0               	movwf	___fttol@f1
  1073  05DE  0821               	movf	?___ftmul+1,w
  1074  05DF  00B1               	movwf	___fttol@f1+1
  1075  05E0  0822               	movf	?___ftmul+2,w
  1076  05E1  00B2               	movwf	___fttol@f1+2
  1077  05E2  120A  118A  20AC  120A  118A  	fcall	___fttol
  1078  05E7  1283               	bcf	3,5	;RP0=0, select bank0
  1079  05E8  1303               	bcf	3,6	;RP1=0, select bank0
  1080  05E9  0830               	movf	?___fttol,w
  1081  05EA  00BE               	movwf	??_main
  1082  05EB  0831               	movf	?___fttol+1,w
  1083  05EC  00BF               	movwf	??_main+1
  1084  05ED  0832               	movf	?___fttol+2,w
  1085  05EE  00C0               	movwf	??_main+2
  1086  05EF  0833               	movf	?___fttol+3,w
  1087  05F0  00C1               	movwf	??_main+3
  1088  05F1                     l894:	
  1089                           
  1090                           ;LedRotativo.c: 58: }
  1091                           ;LedRotativo.c: 59: if (PORTCbits.RC3 == 1){
  1092  05F1  1283               	bcf	3,5	;RP0=0, select bank0
  1093  05F2  1303               	bcf	3,6	;RP1=0, select bank0
  1094  05F3  1D87               	btfss	7,3	;volatile
  1095  05F4  2A1A               	goto	l844
  1096                           
  1097                           ;LedRotativo.c: 60: PORTB = 0B10000000;
  1098  05F5  3080               	movlw	128
  1099  05F6  0086               	movwf	6	;volatile
  1100                           
  1101                           ;LedRotativo.c: 61: _delay((unsigned long)((retraso)*(4000000/4000.0)));
  1102  05F7  3001               	movlw	low (_retraso-__stringbase)
  1103  05F8  0084               	movwf	4
  1104  05F9  120A  118A  2003  120A  118A  	fcall	stringdir
  1105  05FE  00F8               	movwf	___awtoft@c
  1106  05FF  120A  118A  2003  120A  118A  	fcall	stringdir
  1107  0604  00F9               	movwf	___awtoft@c+1
  1108  0605  120A  118A  201F  120A  118A  	fcall	___awtoft
  1109  060A  0878               	movf	?___awtoft,w
  1110  060B  1283               	bcf	3,5	;RP0=0, select bank0
  1111  060C  1303               	bcf	3,6	;RP1=0, select bank0
  1112  060D  00A3               	movwf	___ftmul@f2
  1113  060E  0879               	movf	?___awtoft+1,w
  1114  060F  00A4               	movwf	___ftmul@f2+1
  1115  0610  087A               	movf	?___awtoft+2,w
  1116  0611  00A5               	movwf	___ftmul@f2+2
  1117  0612  3000               	movlw	0
  1118  0613  00A0               	movwf	___ftmul@f1
  1119  0614  307A               	movlw	122
  1120  0615  00A1               	movwf	___ftmul@f1+1
  1121  0616  3044               	movlw	68
  1122  0617  00A2               	movwf	___ftmul@f1+2
  1123  0618  120A  118A  213A  120A  118A  	fcall	___ftmul
  1124  061D  1283               	bcf	3,5	;RP0=0, select bank0
  1125  061E  1303               	bcf	3,6	;RP1=0, select bank0
  1126  061F  0820               	movf	?___ftmul,w
  1127  0620  00B0               	movwf	___fttol@f1
  1128  0621  0821               	movf	?___ftmul+1,w
  1129  0622  00B1               	movwf	___fttol@f1+1
  1130  0623  0822               	movf	?___ftmul+2,w
  1131  0624  00B2               	movwf	___fttol@f1+2
  1132  0625  120A  118A  20AC  120A  118A  	fcall	___fttol
  1133  062A  1283               	bcf	3,5	;RP0=0, select bank0
  1134  062B  1303               	bcf	3,6	;RP1=0, select bank0
  1135  062C  0830               	movf	?___fttol,w
  1136  062D  00BE               	movwf	??_main
  1137  062E  0831               	movf	?___fttol+1,w
  1138  062F  00BF               	movwf	??_main+1
  1139  0630  0832               	movf	?___fttol+2,w
  1140  0631  00C0               	movwf	??_main+2
  1141  0632  0833               	movf	?___fttol+3,w
  1142  0633  00C1               	movwf	??_main+3
  1143                           
  1144                           ;LedRotativo.c: 62: PORTB = 0B11000000;
  1145  0634  30C0               	movlw	192
  1146  0635  1283               	bcf	3,5	;RP0=0, select bank0
  1147  0636  1303               	bcf	3,6	;RP1=0, select bank0
  1148  0637  0086               	movwf	6	;volatile
  1149                           
  1150                           ;LedRotativo.c: 63: _delay((unsigned long)((retraso)*(4000000/4000.0)));
  1151  0638  3001               	movlw	low (_retraso-__stringbase)
  1152  0639  0084               	movwf	4
  1153  063A  120A  118A  2003  120A  118A  	fcall	stringdir
  1154  063F  00F8               	movwf	___awtoft@c
  1155  0640  120A  118A  2003  120A  118A  	fcall	stringdir
  1156  0645  00F9               	movwf	___awtoft@c+1
  1157  0646  120A  118A  201F  120A  118A  	fcall	___awtoft
  1158  064B  0878               	movf	?___awtoft,w
  1159  064C  1283               	bcf	3,5	;RP0=0, select bank0
  1160  064D  1303               	bcf	3,6	;RP1=0, select bank0
  1161  064E  00A3               	movwf	___ftmul@f2
  1162  064F  0879               	movf	?___awtoft+1,w
  1163  0650  00A4               	movwf	___ftmul@f2+1
  1164  0651  087A               	movf	?___awtoft+2,w
  1165  0652  00A5               	movwf	___ftmul@f2+2
  1166  0653  3000               	movlw	0
  1167  0654  00A0               	movwf	___ftmul@f1
  1168  0655  307A               	movlw	122
  1169  0656  00A1               	movwf	___ftmul@f1+1
  1170  0657  3044               	movlw	68
  1171  0658  00A2               	movwf	___ftmul@f1+2
  1172  0659  120A  118A  213A  120A  118A  	fcall	___ftmul
  1173  065E  1283               	bcf	3,5	;RP0=0, select bank0
  1174  065F  1303               	bcf	3,6	;RP1=0, select bank0
  1175  0660  0820               	movf	?___ftmul,w
  1176  0661  00B0               	movwf	___fttol@f1
  1177  0662  0821               	movf	?___ftmul+1,w
  1178  0663  00B1               	movwf	___fttol@f1+1
  1179  0664  0822               	movf	?___ftmul+2,w
  1180  0665  00B2               	movwf	___fttol@f1+2
  1181  0666  120A  118A  20AC  120A  118A  	fcall	___fttol
  1182  066B  1283               	bcf	3,5	;RP0=0, select bank0
  1183  066C  1303               	bcf	3,6	;RP1=0, select bank0
  1184  066D  0830               	movf	?___fttol,w
  1185  066E  00BE               	movwf	??_main
  1186  066F  0831               	movf	?___fttol+1,w
  1187  0670  00BF               	movwf	??_main+1
  1188  0671  0832               	movf	?___fttol+2,w
  1189  0672  00C0               	movwf	??_main+2
  1190  0673  0833               	movf	?___fttol+3,w
  1191  0674  00C1               	movwf	??_main+3
  1192                           
  1193                           ;LedRotativo.c: 64: PORTB = 0B11100000;
  1194  0675  30E0               	movlw	224
  1195  0676  1283               	bcf	3,5	;RP0=0, select bank0
  1196  0677  1303               	bcf	3,6	;RP1=0, select bank0
  1197  0678  0086               	movwf	6	;volatile
  1198                           
  1199                           ;LedRotativo.c: 65: _delay((unsigned long)((retraso)*(4000000/4000.0)));
  1200  0679  3001               	movlw	low (_retraso-__stringbase)
  1201  067A  0084               	movwf	4
  1202  067B  120A  118A  2003  120A  118A  	fcall	stringdir
  1203  0680  00F8               	movwf	___awtoft@c
  1204  0681  120A  118A  2003  120A  118A  	fcall	stringdir
  1205  0686  00F9               	movwf	___awtoft@c+1
  1206  0687  120A  118A  201F  120A  118A  	fcall	___awtoft
  1207  068C  0878               	movf	?___awtoft,w
  1208  068D  1283               	bcf	3,5	;RP0=0, select bank0
  1209  068E  1303               	bcf	3,6	;RP1=0, select bank0
  1210  068F  00A3               	movwf	___ftmul@f2
  1211  0690  0879               	movf	?___awtoft+1,w
  1212  0691  00A4               	movwf	___ftmul@f2+1
  1213  0692  087A               	movf	?___awtoft+2,w
  1214  0693  00A5               	movwf	___ftmul@f2+2
  1215  0694  3000               	movlw	0
  1216  0695  00A0               	movwf	___ftmul@f1
  1217  0696  307A               	movlw	122
  1218  0697  00A1               	movwf	___ftmul@f1+1
  1219  0698  3044               	movlw	68
  1220  0699  00A2               	movwf	___ftmul@f1+2
  1221  069A  120A  118A  213A  120A  118A  	fcall	___ftmul
  1222  069F  1283               	bcf	3,5	;RP0=0, select bank0
  1223  06A0  1303               	bcf	3,6	;RP1=0, select bank0
  1224  06A1  0820               	movf	?___ftmul,w
  1225  06A2  00B0               	movwf	___fttol@f1
  1226  06A3  0821               	movf	?___ftmul+1,w
  1227  06A4  00B1               	movwf	___fttol@f1+1
  1228  06A5  0822               	movf	?___ftmul+2,w
  1229  06A6  00B2               	movwf	___fttol@f1+2
  1230  06A7  120A  118A  20AC  120A  118A  	fcall	___fttol
  1231  06AC  1283               	bcf	3,5	;RP0=0, select bank0
  1232  06AD  1303               	bcf	3,6	;RP1=0, select bank0
  1233  06AE  0830               	movf	?___fttol,w
  1234  06AF  00BE               	movwf	??_main
  1235  06B0  0831               	movf	?___fttol+1,w
  1236  06B1  00BF               	movwf	??_main+1
  1237  06B2  0832               	movf	?___fttol+2,w
  1238  06B3  00C0               	movwf	??_main+2
  1239  06B4  0833               	movf	?___fttol+3,w
  1240  06B5  00C1               	movwf	??_main+3
  1241                           
  1242                           ;LedRotativo.c: 66: PORTB = 0B11110000;
  1243  06B6  30F0               	movlw	240
  1244  06B7  1283               	bcf	3,5	;RP0=0, select bank0
  1245  06B8  1303               	bcf	3,6	;RP1=0, select bank0
  1246  06B9  0086               	movwf	6	;volatile
  1247                           
  1248                           ;LedRotativo.c: 67: _delay((unsigned long)((retraso)*(4000000/4000.0)));
  1249  06BA  3001               	movlw	low (_retraso-__stringbase)
  1250  06BB  0084               	movwf	4
  1251  06BC  120A  118A  2003  120A  118A  	fcall	stringdir
  1252  06C1  00F8               	movwf	___awtoft@c
  1253  06C2  120A  118A  2003  120A  118A  	fcall	stringdir
  1254  06C7  00F9               	movwf	___awtoft@c+1
  1255  06C8  120A  118A  201F  120A  118A  	fcall	___awtoft
  1256  06CD  0878               	movf	?___awtoft,w
  1257  06CE  1283               	bcf	3,5	;RP0=0, select bank0
  1258  06CF  1303               	bcf	3,6	;RP1=0, select bank0
  1259  06D0  00A3               	movwf	___ftmul@f2
  1260  06D1  0879               	movf	?___awtoft+1,w
  1261  06D2  00A4               	movwf	___ftmul@f2+1
  1262  06D3  087A               	movf	?___awtoft+2,w
  1263  06D4  00A5               	movwf	___ftmul@f2+2
  1264  06D5  3000               	movlw	0
  1265  06D6  00A0               	movwf	___ftmul@f1
  1266  06D7  307A               	movlw	122
  1267  06D8  00A1               	movwf	___ftmul@f1+1
  1268  06D9  3044               	movlw	68
  1269  06DA  00A2               	movwf	___ftmul@f1+2
  1270  06DB  120A  118A  213A  120A  118A  	fcall	___ftmul
  1271  06E0  1283               	bcf	3,5	;RP0=0, select bank0
  1272  06E1  1303               	bcf	3,6	;RP1=0, select bank0
  1273  06E2  0820               	movf	?___ftmul,w
  1274  06E3  00B0               	movwf	___fttol@f1
  1275  06E4  0821               	movf	?___ftmul+1,w
  1276  06E5  00B1               	movwf	___fttol@f1+1
  1277  06E6  0822               	movf	?___ftmul+2,w
  1278  06E7  00B2               	movwf	___fttol@f1+2
  1279  06E8  120A  118A  20AC  120A  118A  	fcall	___fttol
  1280  06ED  1283               	bcf	3,5	;RP0=0, select bank0
  1281  06EE  1303               	bcf	3,6	;RP1=0, select bank0
  1282  06EF  0830               	movf	?___fttol,w
  1283  06F0  00BE               	movwf	??_main
  1284  06F1  0831               	movf	?___fttol+1,w
  1285  06F2  00BF               	movwf	??_main+1
  1286  06F3  0832               	movf	?___fttol+2,w
  1287  06F4  00C0               	movwf	??_main+2
  1288  06F5  0833               	movf	?___fttol+3,w
  1289  06F6  00C1               	movwf	??_main+3
  1290                           
  1291                           ;LedRotativo.c: 68: PORTB = 0B11111000;
  1292  06F7  30F8               	movlw	248
  1293  06F8  1283               	bcf	3,5	;RP0=0, select bank0
  1294  06F9  1303               	bcf	3,6	;RP1=0, select bank0
  1295  06FA  0086               	movwf	6	;volatile
  1296                           
  1297                           ;LedRotativo.c: 69: _delay((unsigned long)((retraso)*(4000000/4000.0)));
  1298  06FB  3001               	movlw	low (_retraso-__stringbase)
  1299  06FC  0084               	movwf	4
  1300  06FD  120A  118A  2003  120A  118A  	fcall	stringdir
  1301  0702  00F8               	movwf	___awtoft@c
  1302  0703  120A  118A  2003  120A  118A  	fcall	stringdir
  1303  0708  00F9               	movwf	___awtoft@c+1
  1304  0709  120A  118A  201F  120A  118A  	fcall	___awtoft
  1305  070E  0878               	movf	?___awtoft,w
  1306  070F  1283               	bcf	3,5	;RP0=0, select bank0
  1307  0710  1303               	bcf	3,6	;RP1=0, select bank0
  1308  0711  00A3               	movwf	___ftmul@f2
  1309  0712  0879               	movf	?___awtoft+1,w
  1310  0713  00A4               	movwf	___ftmul@f2+1
  1311  0714  087A               	movf	?___awtoft+2,w
  1312  0715  00A5               	movwf	___ftmul@f2+2
  1313  0716  3000               	movlw	0
  1314  0717  00A0               	movwf	___ftmul@f1
  1315  0718  307A               	movlw	122
  1316  0719  00A1               	movwf	___ftmul@f1+1
  1317  071A  3044               	movlw	68
  1318  071B  00A2               	movwf	___ftmul@f1+2
  1319  071C  120A  118A  213A  120A  118A  	fcall	___ftmul
  1320  0721  1283               	bcf	3,5	;RP0=0, select bank0
  1321  0722  1303               	bcf	3,6	;RP1=0, select bank0
  1322  0723  0820               	movf	?___ftmul,w
  1323  0724  00B0               	movwf	___fttol@f1
  1324  0725  0821               	movf	?___ftmul+1,w
  1325  0726  00B1               	movwf	___fttol@f1+1
  1326  0727  0822               	movf	?___ftmul+2,w
  1327  0728  00B2               	movwf	___fttol@f1+2
  1328  0729  120A  118A  20AC  120A  118A  	fcall	___fttol
  1329  072E  1283               	bcf	3,5	;RP0=0, select bank0
  1330  072F  1303               	bcf	3,6	;RP1=0, select bank0
  1331  0730  0830               	movf	?___fttol,w
  1332  0731  00BE               	movwf	??_main
  1333  0732  0831               	movf	?___fttol+1,w
  1334  0733  00BF               	movwf	??_main+1
  1335  0734  0832               	movf	?___fttol+2,w
  1336  0735  00C0               	movwf	??_main+2
  1337  0736  0833               	movf	?___fttol+3,w
  1338  0737  00C1               	movwf	??_main+3
  1339                           
  1340                           ;LedRotativo.c: 70: PORTB = 0B11111100;
  1341  0738  30FC               	movlw	252
  1342  0739  1283               	bcf	3,5	;RP0=0, select bank0
  1343  073A  1303               	bcf	3,6	;RP1=0, select bank0
  1344  073B  0086               	movwf	6	;volatile
  1345                           
  1346                           ;LedRotativo.c: 71: _delay((unsigned long)((retraso)*(4000000/4000.0)));
  1347  073C  3001               	movlw	low (_retraso-__stringbase)
  1348  073D  0084               	movwf	4
  1349  073E  120A  118A  2003  120A  118A  	fcall	stringdir
  1350  0743  00F8               	movwf	___awtoft@c
  1351  0744  120A  118A  2003  120A  118A  	fcall	stringdir
  1352  0749  00F9               	movwf	___awtoft@c+1
  1353  074A  120A  118A  201F  120A  118A  	fcall	___awtoft
  1354  074F  0878               	movf	?___awtoft,w
  1355  0750  1283               	bcf	3,5	;RP0=0, select bank0
  1356  0751  1303               	bcf	3,6	;RP1=0, select bank0
  1357  0752  00A3               	movwf	___ftmul@f2
  1358  0753  0879               	movf	?___awtoft+1,w
  1359  0754  00A4               	movwf	___ftmul@f2+1
  1360  0755  087A               	movf	?___awtoft+2,w
  1361  0756  00A5               	movwf	___ftmul@f2+2
  1362  0757  3000               	movlw	0
  1363  0758  00A0               	movwf	___ftmul@f1
  1364  0759  307A               	movlw	122
  1365  075A  00A1               	movwf	___ftmul@f1+1
  1366  075B  3044               	movlw	68
  1367  075C  00A2               	movwf	___ftmul@f1+2
  1368  075D  120A  118A  213A  120A  118A  	fcall	___ftmul
  1369  0762  1283               	bcf	3,5	;RP0=0, select bank0
  1370  0763  1303               	bcf	3,6	;RP1=0, select bank0
  1371  0764  0820               	movf	?___ftmul,w
  1372  0765  00B0               	movwf	___fttol@f1
  1373  0766  0821               	movf	?___ftmul+1,w
  1374  0767  00B1               	movwf	___fttol@f1+1
  1375  0768  0822               	movf	?___ftmul+2,w
  1376  0769  00B2               	movwf	___fttol@f1+2
  1377  076A  120A  118A  20AC  120A  118A  	fcall	___fttol
  1378  076F  1283               	bcf	3,5	;RP0=0, select bank0
  1379  0770  1303               	bcf	3,6	;RP1=0, select bank0
  1380  0771  0830               	movf	?___fttol,w
  1381  0772  00BE               	movwf	??_main
  1382  0773  0831               	movf	?___fttol+1,w
  1383  0774  00BF               	movwf	??_main+1
  1384  0775  0832               	movf	?___fttol+2,w
  1385  0776  00C0               	movwf	??_main+2
  1386  0777  0833               	movf	?___fttol+3,w
  1387  0778  00C1               	movwf	??_main+3
  1388                           
  1389                           ;LedRotativo.c: 72: PORTB = 0B11111110;
  1390  0779  30FE               	movlw	254
  1391  077A  1283               	bcf	3,5	;RP0=0, select bank0
  1392  077B  1303               	bcf	3,6	;RP1=0, select bank0
  1393  077C  0086               	movwf	6	;volatile
  1394                           
  1395                           ;LedRotativo.c: 73: _delay((unsigned long)((retraso)*(4000000/4000.0)));
  1396  077D  3001               	movlw	low (_retraso-__stringbase)
  1397  077E  0084               	movwf	4
  1398  077F  120A  118A  2003  120A  118A  	fcall	stringdir
  1399  0784  00F8               	movwf	___awtoft@c
  1400  0785  120A  118A  2003  120A  118A  	fcall	stringdir
  1401  078A  00F9               	movwf	___awtoft@c+1
  1402  078B  120A  118A  201F  120A  118A  	fcall	___awtoft
  1403  0790  0878               	movf	?___awtoft,w
  1404  0791  1283               	bcf	3,5	;RP0=0, select bank0
  1405  0792  1303               	bcf	3,6	;RP1=0, select bank0
  1406  0793  00A3               	movwf	___ftmul@f2
  1407  0794  0879               	movf	?___awtoft+1,w
  1408  0795  00A4               	movwf	___ftmul@f2+1
  1409  0796  087A               	movf	?___awtoft+2,w
  1410  0797  00A5               	movwf	___ftmul@f2+2
  1411  0798  3000               	movlw	0
  1412  0799  00A0               	movwf	___ftmul@f1
  1413  079A  307A               	movlw	122
  1414  079B  00A1               	movwf	___ftmul@f1+1
  1415  079C  3044               	movlw	68
  1416  079D  00A2               	movwf	___ftmul@f1+2
  1417  079E  120A  118A  213A  120A  118A  	fcall	___ftmul
  1418  07A3  1283               	bcf	3,5	;RP0=0, select bank0
  1419  07A4  1303               	bcf	3,6	;RP1=0, select bank0
  1420  07A5  0820               	movf	?___ftmul,w
  1421  07A6  00B0               	movwf	___fttol@f1
  1422  07A7  0821               	movf	?___ftmul+1,w
  1423  07A8  00B1               	movwf	___fttol@f1+1
  1424  07A9  0822               	movf	?___ftmul+2,w
  1425  07AA  00B2               	movwf	___fttol@f1+2
  1426  07AB  120A  118A  20AC  120A  118A  	fcall	___fttol
  1427  07B0  1283               	bcf	3,5	;RP0=0, select bank0
  1428  07B1  1303               	bcf	3,6	;RP1=0, select bank0
  1429  07B2  0830               	movf	?___fttol,w
  1430  07B3  00BE               	movwf	??_main
  1431  07B4  0831               	movf	?___fttol+1,w
  1432  07B5  00BF               	movwf	??_main+1
  1433  07B6  0832               	movf	?___fttol+2,w
  1434  07B7  00C0               	movwf	??_main+2
  1435  07B8  0833               	movf	?___fttol+3,w
  1436  07B9  00C1               	movwf	??_main+3
  1437                           
  1438                           ;LedRotativo.c: 74: PORTB = 0B11111111;
  1439  07BA  30FF               	movlw	255
  1440  07BB  1283               	bcf	3,5	;RP0=0, select bank0
  1441  07BC  1303               	bcf	3,6	;RP1=0, select bank0
  1442  07BD  0086               	movwf	6	;volatile
  1443                           
  1444                           ;LedRotativo.c: 75: _delay((unsigned long)((retraso)*(4000000/4000.0)));
  1445  07BE  3001               	movlw	low (_retraso-__stringbase)
  1446  07BF  0084               	movwf	4
  1447  07C0  120A  118A  2003  120A  118A  	fcall	stringdir
  1448  07C5  00F8               	movwf	___awtoft@c
  1449  07C6  120A  118A  2003  120A  118A  	fcall	stringdir
  1450  07CB  00F9               	movwf	___awtoft@c+1
  1451  07CC  120A  118A  201F  120A  118A  	fcall	___awtoft
  1452  07D1  0878               	movf	?___awtoft,w
  1453  07D2  1283               	bcf	3,5	;RP0=0, select bank0
  1454  07D3  1303               	bcf	3,6	;RP1=0, select bank0
  1455  07D4  00A3               	movwf	___ftmul@f2
  1456  07D5  0879               	movf	?___awtoft+1,w
  1457  07D6  00A4               	movwf	___ftmul@f2+1
  1458  07D7  087A               	movf	?___awtoft+2,w
  1459  07D8  00A5               	movwf	___ftmul@f2+2
  1460  07D9  3000               	movlw	0
  1461  07DA  00A0               	movwf	___ftmul@f1
  1462  07DB  307A               	movlw	122
  1463  07DC  00A1               	movwf	___ftmul@f1+1
  1464  07DD  3044               	movlw	68
  1465  07DE  00A2               	movwf	___ftmul@f1+2
  1466  07DF  120A  118A  213A  120A  118A  	fcall	___ftmul
  1467  07E4  1283               	bcf	3,5	;RP0=0, select bank0
  1468  07E5  1303               	bcf	3,6	;RP1=0, select bank0
  1469  07E6  0820               	movf	?___ftmul,w
  1470  07E7  00B0               	movwf	___fttol@f1
  1471  07E8  0821               	movf	?___ftmul+1,w
  1472  07E9  00B1               	movwf	___fttol@f1+1
  1473  07EA  0822               	movf	?___ftmul+2,w
  1474  07EB  00B2               	movwf	___fttol@f1+2
  1475  07EC  120A  118A  20AC  120A  118A  	fcall	___fttol
  1476  07F1  1283               	bcf	3,5	;RP0=0, select bank0
  1477  07F2  1303               	bcf	3,6	;RP1=0, select bank0
  1478  07F3  0830               	movf	?___fttol,w
  1479  07F4  00BE               	movwf	??_main
  1480  07F5  0831               	movf	?___fttol+1,w
  1481  07F6  00BF               	movwf	??_main+1
  1482  07F7  0832               	movf	?___fttol+2,w
  1483  07F8  00C0               	movwf	??_main+2
  1484  07F9  0833               	movf	?___fttol+3,w
  1485  07FA  00C1               	movwf	??_main+3
  1486  07FB  2A1A               	goto	l844
  1487  07FC                     __end_of_main:	
  1488                           
  1489                           	psect	text1
  1490  00AC                     __ptext1:	
  1491 ;; *************** function ___fttol *****************
  1492 ;; Defined at:
  1493 ;;		line 44 in file "C:\Program Files (x86)\Microchip\xc8\v1.43\sources\common\fttol.c"
  1494 ;; Parameters:    Size  Location     Type
  1495 ;;  f1              3   16[BANK0 ] float 
  1496 ;; Auto vars:     Size  Location     Type
  1497 ;;  lval            4   25[BANK0 ] unsigned long 
  1498 ;;  exp1            1   29[BANK0 ] unsigned char 
  1499 ;;  sign1           1   24[BANK0 ] unsigned char 
  1500 ;; Return value:  Size  Location     Type
  1501 ;;                  4   16[BANK0 ] long 
  1502 ;; Registers used:
  1503 ;;		wreg, status,2, status,0
  1504 ;; Tracked objects:
  1505 ;;		On entry : 0/0
  1506 ;;		On exit  : 0/0
  1507 ;;		Unchanged: 0/0
  1508 ;; Data sizes:     COMMON   BANK0   BANK1   BANK3   BANK2
  1509 ;;      Params:         0       4       0       0       0
  1510 ;;      Locals:         0       6       0       0       0
  1511 ;;      Temps:          0       4       0       0       0
  1512 ;;      Totals:         0      14       0       0       0
  1513 ;;Total ram usage:       14 bytes
  1514 ;; Hardware stack levels used:    1
  1515 ;; This function calls:
  1516 ;;		Nothing
  1517 ;; This function is called by:
  1518 ;;		_main
  1519 ;; This function uses a non-reentrant model
  1520 ;;
  1521                           
  1522                           
  1523                           ;psect for function ___fttol
  1524  00AC                     ___fttol:	
  1525                           
  1526                           ;incstack = 0
  1527                           ; Regs used in ___fttol: [wreg+status,2+status,0]
  1528  00AC  1283               	bcf	3,5	;RP0=0, select bank0
  1529  00AD  1303               	bcf	3,6	;RP1=0, select bank0
  1530  00AE  0830               	movf	___fttol@f1,w
  1531  00AF  00B4               	movwf	??___fttol
  1532  00B0  0831               	movf	___fttol@f1+1,w
  1533  00B1  00B5               	movwf	??___fttol+1
  1534  00B2  0832               	movf	___fttol@f1+2,w
  1535  00B3  00B6               	movwf	??___fttol+2
  1536  00B4  1003               	clrc
  1537  00B5  0D35               	rlf	??___fttol+1,w
  1538  00B6  0D36               	rlf	??___fttol+2,w
  1539  00B7  00B7               	movwf	??___fttol+3
  1540  00B8  0837               	movf	??___fttol+3,w
  1541  00B9  00BD               	movwf	___fttol@exp1
  1542  00BA  083D               	movf	___fttol@exp1,w
  1543  00BB  1D03               	btfss	3,2
  1544  00BC  28C6               	goto	l802
  1545  00BD  3000               	movlw	0
  1546  00BE  00B3               	movwf	?___fttol+3
  1547  00BF  3000               	movlw	0
  1548  00C0  00B2               	movwf	?___fttol+2
  1549  00C1  3000               	movlw	0
  1550  00C2  00B1               	movwf	?___fttol+1
  1551  00C3  3000               	movlw	0
  1552  00C4  00B0               	movwf	?___fttol
  1553  00C5  0008               	return
  1554  00C6                     l802:	
  1555  00C6  0830               	movf	___fttol@f1,w
  1556  00C7  00B4               	movwf	??___fttol
  1557  00C8  0831               	movf	___fttol@f1+1,w
  1558  00C9  00B5               	movwf	??___fttol+1
  1559  00CA  0832               	movf	___fttol@f1+2,w
  1560  00CB  00B6               	movwf	??___fttol+2
  1561  00CC  3017               	movlw	23
  1562  00CD                     u705:	
  1563  00CD  1003               	clrc
  1564  00CE  0CB6               	rrf	??___fttol+2,f
  1565  00CF  0CB5               	rrf	??___fttol+1,f
  1566  00D0  0CB4               	rrf	??___fttol,f
  1567  00D1  3EFF               	addlw	-1
  1568  00D2  1D03               	skipz
  1569  00D3  28CD               	goto	u705
  1570  00D4  0834               	movf	??___fttol,w
  1571  00D5  00B7               	movwf	??___fttol+3
  1572  00D6  0837               	movf	??___fttol+3,w
  1573  00D7  00B8               	movwf	___fttol@sign1
  1574  00D8  17B1               	bsf	___fttol@f1+1,7
  1575  00D9  30FF               	movlw	255
  1576  00DA  05B0               	andwf	___fttol@f1,f
  1577  00DB  30FF               	movlw	255
  1578  00DC  05B1               	andwf	___fttol@f1+1,f
  1579  00DD  3000               	movlw	0
  1580  00DE  05B2               	andwf	___fttol@f1+2,f
  1581  00DF  0830               	movf	___fttol@f1,w
  1582  00E0  00B9               	movwf	___fttol@lval
  1583  00E1  0831               	movf	___fttol@f1+1,w
  1584  00E2  00BA               	movwf	___fttol@lval+1
  1585  00E3  0832               	movf	___fttol@f1+2,w
  1586  00E4  00BB               	movwf	___fttol@lval+2
  1587  00E5  01BC               	clrf	___fttol@lval+3
  1588  00E6  308E               	movlw	142
  1589  00E7  02BD               	subwf	___fttol@exp1,f
  1590  00E8  1FBD               	btfss	___fttol@exp1,7
  1591  00E9  2908               	goto	l822
  1592  00EA  083D               	movf	___fttol@exp1,w
  1593  00EB  3A80               	xorlw	128
  1594  00EC  3E8F               	addlw	143
  1595  00ED  1803               	skipnc
  1596  00EE  28F8               	goto	l820
  1597  00EF  3000               	movlw	0
  1598  00F0  00B3               	movwf	?___fttol+3
  1599  00F1  3000               	movlw	0
  1600  00F2  00B2               	movwf	?___fttol+2
  1601  00F3  3000               	movlw	0
  1602  00F4  00B1               	movwf	?___fttol+1
  1603  00F5  3000               	movlw	0
  1604  00F6  00B0               	movwf	?___fttol
  1605  00F7  0008               	return
  1606  00F8                     l820:	
  1607  00F8  3001               	movlw	1
  1608  00F9                     u735:	
  1609  00F9  1003               	clrc
  1610  00FA  0CBC               	rrf	___fttol@lval+3,f
  1611  00FB  0CBB               	rrf	___fttol@lval+2,f
  1612  00FC  0CBA               	rrf	___fttol@lval+1,f
  1613  00FD  0CB9               	rrf	___fttol@lval,f
  1614  00FE  3EFF               	addlw	-1
  1615  00FF  1D03               	skipz
  1616  0100  28F9               	goto	u735
  1617  0101  3001               	movlw	1
  1618  0102  00B4               	movwf	??___fttol
  1619  0103  0834               	movf	??___fttol,w
  1620  0104  07BD               	addwf	___fttol@exp1,f
  1621  0105  1903               	btfsc	3,2
  1622  0106  2923               	goto	l830
  1623  0107  28F8               	goto	l820
  1624  0108                     l822:	
  1625  0108  3018               	movlw	24
  1626  0109  023D               	subwf	___fttol@exp1,w
  1627  010A  1C03               	skipc
  1628  010B  2920               	goto	l362
  1629  010C  3000               	movlw	0
  1630  010D  00B3               	movwf	?___fttol+3
  1631  010E  3000               	movlw	0
  1632  010F  00B2               	movwf	?___fttol+2
  1633  0110  3000               	movlw	0
  1634  0111  00B1               	movwf	?___fttol+1
  1635  0112  3000               	movlw	0
  1636  0113  00B0               	movwf	?___fttol
  1637  0114  0008               	return
  1638  0115                     l828:	
  1639  0115  3001               	movlw	1
  1640  0116  00B4               	movwf	??___fttol
  1641  0117                     u765:	
  1642  0117  1003               	clrc
  1643  0118  0DB9               	rlf	___fttol@lval,f
  1644  0119  0DBA               	rlf	___fttol@lval+1,f
  1645  011A  0DBB               	rlf	___fttol@lval+2,f
  1646  011B  0DBC               	rlf	___fttol@lval+3,f
  1647  011C  0BB4               	decfsz	??___fttol,f
  1648  011D  2917               	goto	u765
  1649  011E  3001               	movlw	1
  1650  011F  02BD               	subwf	___fttol@exp1,f
  1651  0120                     l362:	
  1652  0120  083D               	movf	___fttol@exp1,w
  1653  0121  1D03               	btfss	3,2
  1654  0122  2915               	goto	l828
  1655  0123                     l830:	
  1656  0123  0838               	movf	___fttol@sign1,w
  1657  0124  1903               	btfsc	3,2
  1658  0125  2931               	goto	l834
  1659  0126  09B9               	comf	___fttol@lval,f
  1660  0127  09BA               	comf	___fttol@lval+1,f
  1661  0128  09BB               	comf	___fttol@lval+2,f
  1662  0129  09BC               	comf	___fttol@lval+3,f
  1663  012A  0AB9               	incf	___fttol@lval,f
  1664  012B  1903               	skipnz
  1665  012C  0ABA               	incf	___fttol@lval+1,f
  1666  012D  1903               	skipnz
  1667  012E  0ABB               	incf	___fttol@lval+2,f
  1668  012F  1903               	skipnz
  1669  0130  0ABC               	incf	___fttol@lval+3,f
  1670  0131                     l834:	
  1671  0131  083C               	movf	___fttol@lval+3,w
  1672  0132  00B3               	movwf	?___fttol+3
  1673  0133  083B               	movf	___fttol@lval+2,w
  1674  0134  00B2               	movwf	?___fttol+2
  1675  0135  083A               	movf	___fttol@lval+1,w
  1676  0136  00B1               	movwf	?___fttol+1
  1677  0137  0839               	movf	___fttol@lval,w
  1678  0138  00B0               	movwf	?___fttol
  1679  0139  0008               	return
  1680  013A                     __end_of___fttol:	
  1681                           
  1682                           	psect	text2
  1683  013A                     __ptext2:	
  1684 ;; *************** function ___ftmul *****************
  1685 ;; Defined at:
  1686 ;;		line 62 in file "C:\Program Files (x86)\Microchip\xc8\v1.43\sources\common\ftmul.c"
  1687 ;; Parameters:    Size  Location     Type
  1688 ;;  f1              3    0[BANK0 ] float 
  1689 ;;  f2              3    3[BANK0 ] float 
  1690 ;; Auto vars:     Size  Location     Type
  1691 ;;  f3_as_produc    3   11[BANK0 ] unsigned um
  1692 ;;  sign            1   15[BANK0 ] unsigned char 
  1693 ;;  cntr            1   14[BANK0 ] unsigned char 
  1694 ;;  exp             1   10[BANK0 ] unsigned char 
  1695 ;; Return value:  Size  Location     Type
  1696 ;;                  3    0[BANK0 ] float 
  1697 ;; Registers used:
  1698 ;;		wreg, status,2, status,0, pclath, cstack
  1699 ;; Tracked objects:
  1700 ;;		On entry : 0/0
  1701 ;;		On exit  : 0/0
  1702 ;;		Unchanged: 0/0
  1703 ;; Data sizes:     COMMON   BANK0   BANK1   BANK3   BANK2
  1704 ;;      Params:         0       6       0       0       0
  1705 ;;      Locals:         0       6       0       0       0
  1706 ;;      Temps:          0       4       0       0       0
  1707 ;;      Totals:         0      16       0       0       0
  1708 ;;Total ram usage:       16 bytes
  1709 ;; Hardware stack levels used:    1
  1710 ;; Hardware stack levels required when called:    1
  1711 ;; This function calls:
  1712 ;;		___ftpack
  1713 ;; This function is called by:
  1714 ;;		_main
  1715 ;; This function uses a non-reentrant model
  1716 ;;
  1717                           
  1718                           
  1719                           ;psect for function ___ftmul
  1720  013A                     ___ftmul:	
  1721                           
  1722                           ;incstack = 0
  1723                           ; Regs used in ___ftmul: [wreg+status,2+status,0+pclath+cstack]
  1724  013A  1283               	bcf	3,5	;RP0=0, select bank0
  1725  013B  1303               	bcf	3,6	;RP1=0, select bank0
  1726  013C  0820               	movf	___ftmul@f1,w
  1727  013D  00A6               	movwf	??___ftmul
  1728  013E  0821               	movf	___ftmul@f1+1,w
  1729  013F  00A7               	movwf	??___ftmul+1
  1730  0140  0822               	movf	___ftmul@f1+2,w
  1731  0141  00A8               	movwf	??___ftmul+2
  1732  0142  1003               	clrc
  1733  0143  0D27               	rlf	??___ftmul+1,w
  1734  0144  0D28               	rlf	??___ftmul+2,w
  1735  0145  00A9               	movwf	??___ftmul+3
  1736  0146  0829               	movf	??___ftmul+3,w
  1737  0147  00AA               	movwf	___ftmul@exp
  1738  0148  082A               	movf	___ftmul@exp,w
  1739  0149  1D03               	btfss	3,2
  1740  014A  2952               	goto	l752
  1741  014B  3000               	movlw	0
  1742  014C  00A0               	movwf	?___ftmul
  1743  014D  3000               	movlw	0
  1744  014E  00A1               	movwf	?___ftmul+1
  1745  014F  3000               	movlw	0
  1746  0150  00A2               	movwf	?___ftmul+2
  1747  0151  0008               	return
  1748  0152                     l752:	
  1749  0152  0823               	movf	___ftmul@f2,w
  1750  0153  00A6               	movwf	??___ftmul
  1751  0154  0824               	movf	___ftmul@f2+1,w
  1752  0155  00A7               	movwf	??___ftmul+1
  1753  0156  0825               	movf	___ftmul@f2+2,w
  1754  0157  00A8               	movwf	??___ftmul+2
  1755  0158  1003               	clrc
  1756  0159  0D27               	rlf	??___ftmul+1,w
  1757  015A  0D28               	rlf	??___ftmul+2,w
  1758  015B  00A9               	movwf	??___ftmul+3
  1759  015C  0829               	movf	??___ftmul+3,w
  1760  015D  00AF               	movwf	___ftmul@sign
  1761  015E  082F               	movf	___ftmul@sign,w
  1762  015F  1D03               	btfss	3,2
  1763  0160  2968               	goto	l758
  1764  0161  3000               	movlw	0
  1765  0162  00A0               	movwf	?___ftmul
  1766  0163  3000               	movlw	0
  1767  0164  00A1               	movwf	?___ftmul+1
  1768  0165  3000               	movlw	0
  1769  0166  00A2               	movwf	?___ftmul+2
  1770  0167  0008               	return
  1771  0168                     l758:	
  1772  0168  082F               	movf	___ftmul@sign,w
  1773  0169  3E7B               	addlw	123
  1774  016A  00A6               	movwf	??___ftmul
  1775  016B  0826               	movf	??___ftmul,w
  1776  016C  07AA               	addwf	___ftmul@exp,f
  1777  016D  0820               	movf	___ftmul@f1,w
  1778  016E  00A6               	movwf	??___ftmul
  1779  016F  0821               	movf	___ftmul@f1+1,w
  1780  0170  00A7               	movwf	??___ftmul+1
  1781  0171  0822               	movf	___ftmul@f1+2,w
  1782  0172  00A8               	movwf	??___ftmul+2
  1783  0173  3010               	movlw	16
  1784  0174                     u575:	
  1785  0174  1003               	clrc
  1786  0175  0CA8               	rrf	??___ftmul+2,f
  1787  0176  0CA7               	rrf	??___ftmul+1,f
  1788  0177  0CA6               	rrf	??___ftmul,f
  1789  0178  3EFF               	addlw	-1
  1790  0179  1D03               	skipz
  1791  017A  2974               	goto	u575
  1792  017B  0826               	movf	??___ftmul,w
  1793  017C  00A9               	movwf	??___ftmul+3
  1794  017D  0829               	movf	??___ftmul+3,w
  1795  017E  00AF               	movwf	___ftmul@sign
  1796  017F  0823               	movf	___ftmul@f2,w
  1797  0180  00A6               	movwf	??___ftmul
  1798  0181  0824               	movf	___ftmul@f2+1,w
  1799  0182  00A7               	movwf	??___ftmul+1
  1800  0183  0825               	movf	___ftmul@f2+2,w
  1801  0184  00A8               	movwf	??___ftmul+2
  1802  0185  3010               	movlw	16
  1803  0186                     u585:	
  1804  0186  1003               	clrc
  1805  0187  0CA8               	rrf	??___ftmul+2,f
  1806  0188  0CA7               	rrf	??___ftmul+1,f
  1807  0189  0CA6               	rrf	??___ftmul,f
  1808  018A  3EFF               	addlw	-1
  1809  018B  1D03               	skipz
  1810  018C  2986               	goto	u585
  1811  018D  0826               	movf	??___ftmul,w
  1812  018E  00A9               	movwf	??___ftmul+3
  1813  018F  0829               	movf	??___ftmul+3,w
  1814  0190  06AF               	xorwf	___ftmul@sign,f
  1815  0191  3080               	movlw	128
  1816  0192  00A6               	movwf	??___ftmul
  1817  0193  0826               	movf	??___ftmul,w
  1818  0194  05AF               	andwf	___ftmul@sign,f
  1819  0195  17A1               	bsf	___ftmul@f1+1,7
  1820  0196  17A4               	bsf	___ftmul@f2+1,7
  1821  0197  30FF               	movlw	255
  1822  0198  05A3               	andwf	___ftmul@f2,f
  1823  0199  30FF               	movlw	255
  1824  019A  05A4               	andwf	___ftmul@f2+1,f
  1825  019B  3000               	movlw	0
  1826  019C  05A5               	andwf	___ftmul@f2+2,f
  1827  019D  3000               	movlw	0
  1828  019E  00AB               	movwf	___ftmul@f3_as_product
  1829  019F  3000               	movlw	0
  1830  01A0  00AC               	movwf	___ftmul@f3_as_product+1
  1831  01A1  3000               	movlw	0
  1832  01A2  00AD               	movwf	___ftmul@f3_as_product+2
  1833  01A3  3007               	movlw	7
  1834  01A4  00A6               	movwf	??___ftmul
  1835  01A5  0826               	movf	??___ftmul,w
  1836  01A6  00AE               	movwf	___ftmul@cntr
  1837  01A7                     l770:	
  1838  01A7  1C20               	btfss	___ftmul@f1,0
  1839  01A8  29B7               	goto	l774
  1840  01A9  0823               	movf	___ftmul@f2,w
  1841  01AA  07AB               	addwf	___ftmul@f3_as_product,f
  1842  01AB  0824               	movf	___ftmul@f2+1,w
  1843  01AC  1103               	clrz
  1844  01AD  1803               	skipnc
  1845  01AE  0A24               	incf	___ftmul@f2+1,w
  1846  01AF  1D03               	btfss	3,2
  1847  01B0  07AC               	addwf	___ftmul@f3_as_product+1,f
  1848  01B1  0825               	movf	___ftmul@f2+2,w
  1849  01B2  1103               	clrz
  1850  01B3  1803               	skipnc
  1851  01B4  0A25               	incf	___ftmul@f2+2,w
  1852  01B5  1D03               	btfss	3,2
  1853  01B6  07AD               	addwf	___ftmul@f3_as_product+2,f
  1854  01B7                     l774:	
  1855  01B7  3001               	movlw	1
  1856  01B8                     u615:	
  1857  01B8  1003               	clrc
  1858  01B9  0CA2               	rrf	___ftmul@f1+2,f
  1859  01BA  0CA1               	rrf	___ftmul@f1+1,f
  1860  01BB  0CA0               	rrf	___ftmul@f1,f
  1861  01BC  3EFF               	addlw	-1
  1862  01BD  1D03               	skipz
  1863  01BE  29B8               	goto	u615
  1864  01BF  3001               	movlw	1
  1865  01C0                     u625:	
  1866  01C0  1003               	clrc
  1867  01C1  0DA3               	rlf	___ftmul@f2,f
  1868  01C2  0DA4               	rlf	___ftmul@f2+1,f
  1869  01C3  0DA5               	rlf	___ftmul@f2+2,f
  1870  01C4  3EFF               	addlw	-1
  1871  01C5  1D03               	skipz
  1872  01C6  29C0               	goto	u625
  1873  01C7  3001               	movlw	1
  1874  01C8  02AE               	subwf	___ftmul@cntr,f
  1875  01C9  1D03               	btfss	3,2
  1876  01CA  29A7               	goto	l770
  1877  01CB  3009               	movlw	9
  1878  01CC  00A6               	movwf	??___ftmul
  1879  01CD  0826               	movf	??___ftmul,w
  1880  01CE  00AE               	movwf	___ftmul@cntr
  1881  01CF                     l782:	
  1882  01CF  1C20               	btfss	___ftmul@f1,0
  1883  01D0  29DF               	goto	l786
  1884  01D1  0823               	movf	___ftmul@f2,w
  1885  01D2  07AB               	addwf	___ftmul@f3_as_product,f
  1886  01D3  0824               	movf	___ftmul@f2+1,w
  1887  01D4  1103               	clrz
  1888  01D5  1803               	skipnc
  1889  01D6  0A24               	incf	___ftmul@f2+1,w
  1890  01D7  1D03               	btfss	3,2
  1891  01D8  07AC               	addwf	___ftmul@f3_as_product+1,f
  1892  01D9  0825               	movf	___ftmul@f2+2,w
  1893  01DA  1103               	clrz
  1894  01DB  1803               	skipnc
  1895  01DC  0A25               	incf	___ftmul@f2+2,w
  1896  01DD  1D03               	btfss	3,2
  1897  01DE  07AD               	addwf	___ftmul@f3_as_product+2,f
  1898  01DF                     l786:	
  1899  01DF  3001               	movlw	1
  1900  01E0                     u665:	
  1901  01E0  1003               	clrc
  1902  01E1  0CA2               	rrf	___ftmul@f1+2,f
  1903  01E2  0CA1               	rrf	___ftmul@f1+1,f
  1904  01E3  0CA0               	rrf	___ftmul@f1,f
  1905  01E4  3EFF               	addlw	-1
  1906  01E5  1D03               	skipz
  1907  01E6  29E0               	goto	u665
  1908  01E7  3001               	movlw	1
  1909  01E8                     u675:	
  1910  01E8  1003               	clrc
  1911  01E9  0CAD               	rrf	___ftmul@f3_as_product+2,f
  1912  01EA  0CAC               	rrf	___ftmul@f3_as_product+1,f
  1913  01EB  0CAB               	rrf	___ftmul@f3_as_product,f
  1914  01EC  3EFF               	addlw	-1
  1915  01ED  1D03               	skipz
  1916  01EE  29E8               	goto	u675
  1917  01EF  3001               	movlw	1
  1918  01F0  02AE               	subwf	___ftmul@cntr,f
  1919  01F1  1D03               	btfss	3,2
  1920  01F2  29CF               	goto	l782
  1921  01F3  082B               	movf	___ftmul@f3_as_product,w
  1922  01F4  00F0               	movwf	___ftpack@arg
  1923  01F5  082C               	movf	___ftmul@f3_as_product+1,w
  1924  01F6  00F1               	movwf	___ftpack@arg+1
  1925  01F7  082D               	movf	___ftmul@f3_as_product+2,w
  1926  01F8  00F2               	movwf	___ftpack@arg+2
  1927  01F9  082A               	movf	___ftmul@exp,w
  1928  01FA  00A6               	movwf	??___ftmul
  1929  01FB  0826               	movf	??___ftmul,w
  1930  01FC  00F3               	movwf	___ftpack@exp
  1931  01FD  082F               	movf	___ftmul@sign,w
  1932  01FE  00A7               	movwf	??___ftmul+1
  1933  01FF  0827               	movf	??___ftmul+1,w
  1934  0200  00F4               	movwf	___ftpack@sign
  1935  0201  120A  118A  2040   	fcall	___ftpack
  1936  0204  0870               	movf	?___ftpack,w
  1937  0205  1283               	bcf	3,5	;RP0=0, select bank0
  1938  0206  1303               	bcf	3,6	;RP1=0, select bank0
  1939  0207  00A0               	movwf	?___ftmul
  1940  0208  0871               	movf	?___ftpack+1,w
  1941  0209  00A1               	movwf	?___ftmul+1
  1942  020A  0872               	movf	?___ftpack+2,w
  1943  020B  00A2               	movwf	?___ftmul+2
  1944  020C  0008               	return
  1945  020D                     __end_of___ftmul:	
  1946                           
  1947                           	psect	text3
  1948  001F                     __ptext3:	
  1949 ;; *************** function ___awtoft *****************
  1950 ;; Defined at:
  1951 ;;		line 32 in file "C:\Program Files (x86)\Microchip\xc8\v1.43\sources\common\awtoft.c"
  1952 ;; Parameters:    Size  Location     Type
  1953 ;;  c               2    8[COMMON] int 
  1954 ;; Auto vars:     Size  Location     Type
  1955 ;;  sign            1   13[COMMON] unsigned char 
  1956 ;; Return value:  Size  Location     Type
  1957 ;;                  3    8[COMMON] float 
  1958 ;; Registers used:
  1959 ;;		wreg, status,2, status,0, pclath, cstack
  1960 ;; Tracked objects:
  1961 ;;		On entry : 0/0
  1962 ;;		On exit  : 0/0
  1963 ;;		Unchanged: 0/0
  1964 ;; Data sizes:     COMMON   BANK0   BANK1   BANK3   BANK2
  1965 ;;      Params:         3       0       0       0       0
  1966 ;;      Locals:         1       0       0       0       0
  1967 ;;      Temps:          2       0       0       0       0
  1968 ;;      Totals:         6       0       0       0       0
  1969 ;;Total ram usage:        6 bytes
  1970 ;; Hardware stack levels used:    1
  1971 ;; Hardware stack levels required when called:    1
  1972 ;; This function calls:
  1973 ;;		___ftpack
  1974 ;; This function is called by:
  1975 ;;		_main
  1976 ;; This function uses a non-reentrant model
  1977 ;;
  1978                           
  1979                           
  1980                           ;psect for function ___awtoft
  1981  001F                     ___awtoft:	
  1982                           
  1983                           ;incstack = 0
  1984                           ; Regs used in ___awtoft: [wreg+status,2+status,0+pclath+cstack]
  1985  001F  01FD               	clrf	___awtoft@sign
  1986  0020  1FF9               	btfss	___awtoft@c+1,7
  1987  0021  2829               	goto	l742
  1988  0022  09F8               	comf	___awtoft@c,f
  1989  0023  09F9               	comf	___awtoft@c+1,f
  1990  0024  0AF8               	incf	___awtoft@c,f
  1991  0025  1903               	skipnz
  1992  0026  0AF9               	incf	___awtoft@c+1,f
  1993  0027  01FD               	clrf	___awtoft@sign
  1994  0028  0AFD               	incf	___awtoft@sign,f
  1995  0029                     l742:	
  1996  0029  0878               	movf	___awtoft@c,w
  1997  002A  00F0               	movwf	___ftpack@arg
  1998  002B  0879               	movf	___awtoft@c+1,w
  1999  002C  00F1               	movwf	___ftpack@arg+1
  2000  002D  01F2               	clrf	___ftpack@arg+2
  2001  002E  308E               	movlw	142
  2002  002F  00FB               	movwf	??___awtoft
  2003  0030  087B               	movf	??___awtoft,w
  2004  0031  00F3               	movwf	___ftpack@exp
  2005  0032  087D               	movf	___awtoft@sign,w
  2006  0033  00FC               	movwf	??___awtoft+1
  2007  0034  087C               	movf	??___awtoft+1,w
  2008  0035  00F4               	movwf	___ftpack@sign
  2009  0036  120A  118A  2040   	fcall	___ftpack
  2010  0039  0870               	movf	?___ftpack,w
  2011  003A  00F8               	movwf	?___awtoft
  2012  003B  0871               	movf	?___ftpack+1,w
  2013  003C  00F9               	movwf	?___awtoft+1
  2014  003D  0872               	movf	?___ftpack+2,w
  2015  003E  00FA               	movwf	?___awtoft+2
  2016  003F  0008               	return
  2017  0040                     __end_of___awtoft:	
  2018                           
  2019                           	psect	text4
  2020  0040                     __ptext4:	
  2021 ;; *************** function ___ftpack *****************
  2022 ;; Defined at:
  2023 ;;		line 62 in file "C:\Program Files (x86)\Microchip\xc8\v1.43\sources\common\float.c"
  2024 ;; Parameters:    Size  Location     Type
  2025 ;;  arg             3    0[COMMON] unsigned um
  2026 ;;  exp             1    3[COMMON] unsigned char 
  2027 ;;  sign            1    4[COMMON] unsigned char 
  2028 ;; Auto vars:     Size  Location     Type
  2029 ;;		None
  2030 ;; Return value:  Size  Location     Type
  2031 ;;                  3    0[COMMON] float 
  2032 ;; Registers used:
  2033 ;;		wreg, status,2, status,0
  2034 ;; Tracked objects:
  2035 ;;		On entry : 0/0
  2036 ;;		On exit  : 0/0
  2037 ;;		Unchanged: 0/0
  2038 ;; Data sizes:     COMMON   BANK0   BANK1   BANK3   BANK2
  2039 ;;      Params:         5       0       0       0       0
  2040 ;;      Locals:         0       0       0       0       0
  2041 ;;      Temps:          3       0       0       0       0
  2042 ;;      Totals:         8       0       0       0       0
  2043 ;;Total ram usage:        8 bytes
  2044 ;; Hardware stack levels used:    1
  2045 ;; This function calls:
  2046 ;;		Nothing
  2047 ;; This function is called by:
  2048 ;;		___awtoft
  2049 ;;		___ftmul
  2050 ;; This function uses a non-reentrant model
  2051 ;;
  2052                           
  2053                           
  2054                           ;psect for function ___ftpack
  2055  0040                     ___ftpack:	
  2056                           
  2057                           ;incstack = 0
  2058                           ; Regs used in ___ftpack: [wreg+status,2+status,0]
  2059  0040  0873               	movf	___ftpack@exp,w
  2060  0041  1903               	btfsc	3,2
  2061  0042  2848               	goto	l706
  2062  0043  0872               	movf	___ftpack@arg+2,w
  2063  0044  0471               	iorwf	___ftpack@arg+1,w
  2064  0045  0470               	iorwf	___ftpack@arg,w
  2065  0046  1D03               	skipz
  2066  0047  285B               	goto	l712
  2067  0048                     l706:	
  2068  0048  3000               	movlw	0
  2069  0049  00F0               	movwf	?___ftpack
  2070  004A  3000               	movlw	0
  2071  004B  00F1               	movwf	?___ftpack+1
  2072  004C  3000               	movlw	0
  2073  004D  00F2               	movwf	?___ftpack+2
  2074  004E  0008               	return
  2075  004F                     l710:	
  2076  004F  3001               	movlw	1
  2077  0050  00F5               	movwf	??___ftpack
  2078  0051  0875               	movf	??___ftpack,w
  2079  0052  07F3               	addwf	___ftpack@exp,f
  2080  0053  3001               	movlw	1
  2081  0054                     u445:	
  2082  0054  1003               	clrc
  2083  0055  0CF2               	rrf	___ftpack@arg+2,f
  2084  0056  0CF1               	rrf	___ftpack@arg+1,f
  2085  0057  0CF0               	rrf	___ftpack@arg,f
  2086  0058  3EFF               	addlw	-1
  2087  0059  1D03               	skipz
  2088  005A  2854               	goto	u445
  2089  005B                     l712:	
  2090  005B  30FE               	movlw	254
  2091  005C  0572               	andwf	___ftpack@arg+2,w
  2092  005D  1903               	btfsc	3,2
  2093  005E  2876               	goto	l271
  2094  005F  284F               	goto	l710
  2095  0060                     l714:	
  2096  0060  3001               	movlw	1
  2097  0061  00F5               	movwf	??___ftpack
  2098  0062  0875               	movf	??___ftpack,w
  2099  0063  07F3               	addwf	___ftpack@exp,f
  2100  0064  3001               	movlw	1
  2101  0065  07F0               	addwf	___ftpack@arg,f
  2102  0066  3000               	movlw	0
  2103  0067  1803               	skipnc
  2104  0068  3001               	movlw	1
  2105  0069  07F1               	addwf	___ftpack@arg+1,f
  2106  006A  3000               	movlw	0
  2107  006B  1803               	skipnc
  2108  006C  3001               	movlw	1
  2109  006D  07F2               	addwf	___ftpack@arg+2,f
  2110  006E  3001               	movlw	1
  2111  006F                     u465:	
  2112  006F  1003               	clrc
  2113  0070  0CF2               	rrf	___ftpack@arg+2,f
  2114  0071  0CF1               	rrf	___ftpack@arg+1,f
  2115  0072  0CF0               	rrf	___ftpack@arg,f
  2116  0073  3EFF               	addlw	-1
  2117  0074  1D03               	skipz
  2118  0075  286F               	goto	u465
  2119  0076                     l271:	
  2120  0076  30FF               	movlw	255
  2121  0077  0572               	andwf	___ftpack@arg+2,w
  2122  0078  1903               	btfsc	3,2
  2123  0079  2885               	goto	l722
  2124  007A  2860               	goto	l714
  2125  007B                     l720:	
  2126  007B  3001               	movlw	1
  2127  007C  02F3               	subwf	___ftpack@exp,f
  2128  007D  3001               	movlw	1
  2129  007E                     u485:	
  2130  007E  1003               	clrc
  2131  007F  0DF0               	rlf	___ftpack@arg,f
  2132  0080  0DF1               	rlf	___ftpack@arg+1,f
  2133  0081  0DF2               	rlf	___ftpack@arg+2,f
  2134  0082  3EFF               	addlw	-1
  2135  0083  1D03               	skipz
  2136  0084  287E               	goto	u485
  2137  0085                     l722:	
  2138  0085  1BF1               	btfsc	___ftpack@arg+1,7
  2139  0086  288B               	goto	l278
  2140  0087  3002               	movlw	2
  2141  0088  0273               	subwf	___ftpack@exp,w
  2142  0089  1803               	skipnc
  2143  008A  287B               	goto	l720
  2144  008B                     l278:	
  2145  008B  1873               	btfsc	___ftpack@exp,0
  2146  008C  2893               	goto	l279
  2147  008D  30FF               	movlw	255
  2148  008E  05F0               	andwf	___ftpack@arg,f
  2149  008F  307F               	movlw	127
  2150  0090  05F1               	andwf	___ftpack@arg+1,f
  2151  0091  30FF               	movlw	255
  2152  0092  05F2               	andwf	___ftpack@arg+2,f
  2153  0093                     l279:	
  2154  0093  1003               	clrc
  2155  0094  0CF3               	rrf	___ftpack@exp,f
  2156  0095  0873               	movf	___ftpack@exp,w
  2157  0096  00F5               	movwf	??___ftpack
  2158  0097  01F6               	clrf	??___ftpack+1
  2159  0098  01F7               	clrf	??___ftpack+2
  2160  0099  3010               	movlw	16
  2161  009A                     u525:	
  2162  009A  1003               	clrc
  2163  009B  0DF5               	rlf	??___ftpack,f
  2164  009C  0DF6               	rlf	??___ftpack+1,f
  2165  009D  0DF7               	rlf	??___ftpack+2,f
  2166  009E  3EFF               	addlw	-1
  2167  009F  1D03               	skipz
  2168  00A0  289A               	goto	u525
  2169  00A1  0875               	movf	??___ftpack,w
  2170  00A2  04F0               	iorwf	___ftpack@arg,f
  2171  00A3  0876               	movf	??___ftpack+1,w
  2172  00A4  04F1               	iorwf	___ftpack@arg+1,f
  2173  00A5  0877               	movf	??___ftpack+2,w
  2174  00A6  04F2               	iorwf	___ftpack@arg+2,f
  2175  00A7  0874               	movf	___ftpack@sign,w
  2176  00A8  1903               	btfsc	3,2
  2177  00A9  0008               	return
  2178  00AA  17F2               	bsf	___ftpack@arg+2,7
  2179  00AB  0008               	return
  2180  00AC                     __end_of___ftpack:	
  2181  007E                     btemp	set	126	;btemp
  2182  007E                     wtemp0	set	126


Data Sizes:
    Strings     0
    Constant    2
    Data        0
    BSS         0
    Persistent  0
    Stack       0

Auto Spaces:
    Space          Size  Autos    Used
    COMMON           14     14      14
    BANK0            80     34      34
    BANK1            80      0       0
    BANK3            96      0       0
    BANK2            96      0       0

Pointer List with Targets:

    None.

Critical Paths under _main in COMMON

    _main->___awtoft
    ___fttol->___awtoft
    ___ftmul->___awtoft
    ___awtoft->___ftpack

Critical Paths under _main in BANK0

    _main->___fttol
    ___fttol->___ftmul

Critical Paths under _main in BANK1

    None.

Critical Paths under _main in BANK3

    None.

Critical Paths under _main in BANK2

    None.

Call Graph Tables:

 ---------------------------------------------------------------------------------
 (Depth) Function   	        Calls       Base Space   Used Autos Params    Refs
 ---------------------------------------------------------------------------------
 (0) _main                                                 4     4      0    8803
                                             30 BANK0      4     4      0
                           ___awtoft
                            ___ftmul
                            ___fttol
 ---------------------------------------------------------------------------------
 (1) ___fttol                                             14    10      4    1471
                                             16 BANK0     14    10      4
                           ___awtoft (ARG)
                            ___ftmul (ARG)
 ---------------------------------------------------------------------------------
 (1) ___ftmul                                             16    10      6    4393
                                              0 BANK0     16    10      6
                           ___awtoft (ARG)
                           ___ftpack
 ---------------------------------------------------------------------------------
 (1) ___awtoft                                             6     3      3    2939
                                              8 COMMON     6     3      3
                           ___ftpack
 ---------------------------------------------------------------------------------
 (2) ___ftpack                                             8     3      5    1629
                                              0 COMMON     8     3      5
 ---------------------------------------------------------------------------------
 Estimated maximum stack depth 2
 ---------------------------------------------------------------------------------

 Call Graph Graphs:

 _main (ROOT)
   ___awtoft
     ___ftpack
   ___ftmul
     ___awtoft (ARG)
       ___ftpack
     ___ftpack (ARG)
   ___fttol
     ___awtoft (ARG)
       ___ftpack
     ___ftmul (ARG)
       ___awtoft (ARG)
         ___ftpack
       ___ftpack (ARG)

 Address spaces:
Name               Size   Autos  Total    Cost      Usage
BITCOMMON            E      0       0       0        0.0%
EEDATA             100      0       0       0        0.0%
NULL                 0      0       0       0        0.0%
CODE                 0      0       0       0        0.0%
COMMON               E      E       E       1      100.0%
BITSFR0              0      0       0       1        0.0%
SFR0                 0      0       0       1        0.0%
BITSFR1              0      0       0       2        0.0%
SFR1                 0      0       0       2        0.0%
STACK                0      0       0       2        0.0%
ABS                  0      0       0       3        0.0%
BITBANK0            50      0       0       4        0.0%
BITSFR3              0      0       0       4        0.0%
SFR3                 0      0       0       4        0.0%
BANK0               50     22      22       5       42.5%
BITSFR2              0      0       0       5        0.0%
SFR2                 0      0       0       5        0.0%
BITBANK1            50      0       0       6        0.0%
BANK1               50      0       0       7        0.0%
BITBANK3            60      0       0       8        0.0%
BANK3               60      0       0       9        0.0%
BITBANK2            60      0       0      10        0.0%
BANK2               60      0       0      11        0.0%
DATA                 0      0       0      12        0.0%


Microchip Technology PIC Macro Assembler V1.43 build -156212558 
Symbol Table                                                                                   Wed Aug 30 00:21:07 2017

                       pc 0002               __CFG_CP$OFF 0000                        fsr 0004  
                     l271 0076                       l362 0120                       l278 008B  
                     l710 004F                       l279 0093                       l720 007B  
                     l712 005B                       l722 0085                       l714 0060  
                     l706 0048                       l802 00C6                       l820 00F8  
                     l742 0029                       l830 0123                       l822 0108  
                     l752 0152                       l770 01A7                       l834 0131  
                     l828 0115                       l844 021A                       l782 01CF  
                     l774 01B7                       l758 0168                       l880 04ED  
                     l786 01DF                       l868 0424                       l894 05F1  
            __CFG_CPD$OFF 0000                       u525 009A                       u445 0054  
                     u615 01B8                       u465 006F                       u625 01C0  
                     u705 00CD                       u485 007E                       u575 0174  
                     u735 00F9                       u665 01E0                       u585 0186  
                     u675 01E8                       u765 0117                       fsr0 0004  
            __CFG_LVP$OFF 0000              __CFG_WDTE$ON 0000              __CFG_WRT$OFF 0000  
                    _main 020D              ___ftpack@arg 0070              ___ftpack@exp 0073  
                    btemp 007E                      start 0000             __CFG_IESO$OFF 0000  
           __CFG_MCLRE$ON 0000              ___ftmul@cntr 002E              ___ftmul@sign 002F  
            ___fttol@exp1 003D              ___fttol@lval 0039                     ?_main 0070  
         __end_of___ftmul 020D           __end_of___fttol 013A                     _PORTB 0006  
                   _PORTC 0007                     _TRISB 0086                     _TRISC 0087  
          __CFG_FCMEN$OFF 0000             ___awtoft@sign 007D             ___ftpack@sign 0074  
          __CFG_BOREN$OFF 0000                     pclath 000A           __end_of_retraso 000B  
                   status 0003                     wtemp0 007E           __initialization 07FC  
            __end_of_main 07FC                    ??_main 003E             ___fttol@sign1 0038  
        __end_of___awtoft 0040          __end_of___ftpack 00AC            __CFG_PWRTE$OFF 0000  
               ??___ftmul 0026                 ??___fttol 0034     ___ftmul@f3_as_product 002B  
 __end_of__initialization 07FC                ___awtoft@c 0078                ___ftmul@f1 0020  
              ___ftmul@f2 0023                ___fttol@f1 0030            __pcstackCOMMON 0070  
              __pmaintext 020D                 ?___awtoft 0078                 ?___ftpack 0070  
              __stringtab 0003                   ___ftmul 013A                   ___fttol 00AC  
              ??___awtoft 007B                ??___ftpack 0075                   __ptext1 00AC  
                 __ptext2 013A                   __ptext3 001F                   __ptext4 0040  
                 _retraso 0009      end_of_initialization 07FC                 _PORTCbits 0007  
             ___ftmul@exp 002A       start_initialization 07FC  __CFG_FOSC$INTRC_NOCLKOUT 0000  
       __size_of___awtoft 0021         __size_of___ftpack 006C                 ___latbits 0002  
           __pcstackBANK0 0020                  ?___ftmul 0020                  ?___fttol 0030  
               __pstrings 0003               __stringbase 0008          __size_of___ftmul 00D3  
        __size_of___fttol 008E                  ___awtoft 001F                  ___ftpack 0040  
      __end_of__stringtab 0009         __CFG_BOR4V$BOR40V 0000             __size_of_main 05EF  
               stringcode 0003                  stringdir 0003                  stringtab 0003  
